TN:
SF:/usr/include/c++/11/ext/aligned_buffer.h
FN:64,_ZN9__gnu_cxx16__aligned_membufI9SituationE7_M_addrEv
FNDA:100058,_ZN9__gnu_cxx16__aligned_membufI9SituationE7_M_addrEv
FN:72,_ZN9__gnu_cxx16__aligned_membufI9SituationE6_M_ptrEv
FNDA:100058,_ZN9__gnu_cxx16__aligned_membufI9SituationE6_M_ptrEv
DA:64,100058
DA:65,100058
DA:72,100058
DA:73,100058
end_of_record
SF:/home/sofia/form/hpp/Grammar.hpp
end_of_record
SF:/usr/include/c++/11/bits/stl_iterator_base_funcs.h
FN:98,_ZSt10__distanceIPcENSt15iterator_traitsIT_E15difference_typeES2_S2_St26random_access_iterator_tag
FNDA:0,_ZSt10__distanceIPcENSt15iterator_traitsIT_E15difference_typeES2_S2_St26random_access_iterator_tag
FN:98,_ZSt10__distanceIPKcENSt15iterator_traitsIT_E15difference_typeES3_S3_St26random_access_iterator_tag
FNDA:727,_ZSt10__distanceIPKcENSt15iterator_traitsIT_E15difference_typeES3_S3_St26random_access_iterator_tag
FN:138,_ZSt8distanceIPcENSt15iterator_traitsIT_E15difference_typeES2_S2_
FNDA:0,_ZSt8distanceIPcENSt15iterator_traitsIT_E15difference_typeES2_S2_
FN:138,_ZSt8distanceIPKcENSt15iterator_traitsIT_E15difference_typeES3_S3_
FNDA:727,_ZSt8distanceIPKcENSt15iterator_traitsIT_E15difference_typeES3_S3_
DA:98,0
DA:104,0
DA:98,727
DA:104,727
DA:138,0
DA:141,0
DA:142,0
DA:138,727
DA:141,727
DA:142,1454
end_of_record
SF:/home/sofia/form/googletest/googletest/include/gtest/gtest.h
FN:256,_ZN7testing4Test14SetUpTestSuiteEv
FNDA:0,_ZN7testing4Test14SetUpTestSuiteEv
FN:264,_ZN7testing4Test17TearDownTestSuiteEv
FNDA:0,_ZN7testing4Test17TearDownTestSuiteEv
FN:269,_ZN7testing4Test16TearDownTestCaseEv
FNDA:0,_ZN7testing4Test16TearDownTestCaseEv
FN:270,_ZN7testing4Test13SetUpTestCaseEv
FNDA:0,_ZN7testing4Test13SetUpTestCaseEv
FN:351,_ZN7testing4Test5SetupEv
FNDA:0,_ZN7testing4Test5SetupEv
FN:2310,_Z13RUN_ALL_TESTSv
FNDA:1,_Z13RUN_ALL_TESTSv
DA:256,0
DA:264,0
DA:269,0
DA:270,0
DA:351,0
DA:2310,1
end_of_record
SF:/usr/include/c++/11/bits/char_traits.h
FN:106,_ZN9__gnu_cxx11char_traitsIcE2eqERKcS3_
FNDA:0,_ZN9__gnu_cxx11char_traitsIcE2eqERKcS3_
FN:167,_ZN9__gnu_cxx11char_traitsIcE6lengthEPKc
FNDA:0,_ZN9__gnu_cxx11char_traitsIcE6lengthEPKc
FN:393,_ZNSt11char_traitsIcE6lengthEPKc
FNDA:715,_ZNSt11char_traitsIcE6lengthEPKc
DA:106,0
DA:107,0
DA:167,0
DA:170,0
DA:171,0
DA:172,0
DA:173,0
DA:290,715
DA:393,715
DA:396,715
DA:397,0
DA:399,715
end_of_record
SF:/home/sofia/form/hpp/Parser.hpp
end_of_record
SF:/usr/include/c++/11/new
FN:174,_ZnwmPv
FNDA:4689896,_ZnwmPv
FN:180,_ZdlPvS_
FNDA:0,_ZdlPvS_
DA:174,4689896
DA:175,4689896
DA:180,0
end_of_record
SF:/usr/include/c++/11/iostream
end_of_record
SF:/usr/include/c++/11/tuple
FN:80,_ZNSt10_Head_baseILm1ESt14default_deleteINSt7__cxx1112basic_stringIcSt11char_traitsIcESaIcEEEELb1EEC2Ev
FNDA:263,_ZNSt10_Head_baseILm1ESt14default_deleteINSt7__cxx1112basic_stringIcSt11char_traitsIcESaIcEEEELb1EEC2Ev
FN:124,_ZNSt10_Head_baseILm1ESt14default_deleteINSt7__cxx1118basic_stringstreamIcSt11char_traitsIcESaIcEEEELb1EE7_M_headERS8_
FNDA:71,_ZNSt10_Head_baseILm1ESt14default_deleteINSt7__cxx1118basic_stringstreamIcSt11char_traitsIcESaIcEEEELb1EE7_M_headERS8_
FN:124,_ZNSt10_Head_baseILm1ESt14default_deleteINSt7__cxx1112basic_stringIcSt11char_traitsIcESaIcEEEELb1EE7_M_headERS8_
FNDA:0,_ZNSt10_Head_baseILm1ESt14default_deleteINSt7__cxx1112basic_stringIcSt11char_traitsIcESaIcEEEELb1EE7_M_headERS8_
FN:189,_ZNSt10_Head_baseILm0EPNSt7__cxx1112basic_stringIcSt11char_traitsIcESaIcEEELb0EEC2Ev
FNDA:263,_ZNSt10_Head_baseILm0EPNSt7__cxx1112basic_stringIcSt11char_traitsIcESaIcEEELb0EEC2Ev
FN:233,_ZNSt10_Head_baseILm0EPNSt7__cxx1112basic_stringIcSt11char_traitsIcESaIcEEELb0EE7_M_headERS7_
FNDA:263,_ZNSt10_Head_baseILm0EPNSt7__cxx1112basic_stringIcSt11char_traitsIcESaIcEEELb0EE7_M_headERS7_
FN:233,_ZNSt10_Head_baseILm0EPNSt7__cxx1118basic_stringstreamIcSt11char_traitsIcESaIcEEELb0EE7_M_headERS7_
FNDA:142,_ZNSt10_Head_baseILm0EPNSt7__cxx1118basic_stringstreamIcSt11char_traitsIcESaIcEEELb0EE7_M_headERS7_
FN:268,_ZNSt11_Tuple_implILm0EJPNSt7__cxx1118basic_stringstreamIcSt11char_traitsIcESaIcEEESt14default_deleteIS5_EEE7_M_headERS9_
FNDA:142,_ZNSt11_Tuple_implILm0EJPNSt7__cxx1118basic_stringstreamIcSt11char_traitsIcESaIcEEESt14default_deleteIS5_EEE7_M_headERS9_
FN:268,_ZNSt11_Tuple_implILm0EJPNSt7__cxx1112basic_stringIcSt11char_traitsIcESaIcEEESt14default_deleteIS5_EEE7_M_headERS9_
FNDA:263,_ZNSt11_Tuple_implILm0EJPNSt7__cxx1112basic_stringIcSt11char_traitsIcESaIcEEESt14default_deleteIS5_EEE7_M_headERS9_
FN:279,_ZNSt11_Tuple_implILm0EJPNSt7__cxx1112basic_stringIcSt11char_traitsIcESaIcEEESt14default_deleteIS5_EEEC2Ev
FNDA:263,_ZNSt11_Tuple_implILm0EJPNSt7__cxx1112basic_stringIcSt11char_traitsIcESaIcEEESt14default_deleteIS5_EEEC2Ev
FN:424,_ZNSt11_Tuple_implILm1EJSt14default_deleteINSt7__cxx1118basic_stringstreamIcSt11char_traitsIcESaIcEEEEEE7_M_headERS8_
FNDA:71,_ZNSt11_Tuple_implILm1EJSt14default_deleteINSt7__cxx1118basic_stringstreamIcSt11char_traitsIcESaIcEEEEEE7_M_headERS8_
FN:424,_ZNSt11_Tuple_implILm1EJSt14default_deleteINSt7__cxx1112basic_stringIcSt11char_traitsIcESaIcEEEEEE7_M_headERS8_
FNDA:0,_ZNSt11_Tuple_implILm1EJSt14default_deleteINSt7__cxx1112basic_stringIcSt11char_traitsIcESaIcEEEEEE7_M_headERS8_
FN:430,_ZNSt11_Tuple_implILm1EJSt14default_deleteINSt7__cxx1112basic_stringIcSt11char_traitsIcESaIcEEEEEEC2Ev
FNDA:263,_ZNSt11_Tuple_implILm1EJSt14default_deleteINSt7__cxx1112basic_stringIcSt11char_traitsIcESaIcEEEEEEC2Ev
FN:1053,_ZNSt5tupleIJPNSt7__cxx1112basic_stringIcSt11char_traitsIcESaIcEEESt14default_deleteIS5_EEEC2ILb1ELb1EEEv
FNDA:263,_ZNSt5tupleIJPNSt7__cxx1112basic_stringIcSt11char_traitsIcESaIcEEESt14default_deleteIS5_EEEC2ILb1ELb1EEEv
FN:1381,_ZSt12__get_helperILm1ESt14default_deleteINSt7__cxx1112basic_stringIcSt11char_traitsIcESaIcEEEEJEERT0_RSt11_Tuple_implIXT_EJS8_DpT1_EE
FNDA:0,_ZSt12__get_helperILm1ESt14default_deleteINSt7__cxx1112basic_stringIcSt11char_traitsIcESaIcEEEEJEERT0_RSt11_Tuple_implIXT_EJS8_DpT1_EE
FN:1381,_ZSt12__get_helperILm1ESt14default_deleteINSt7__cxx1118basic_stringstreamIcSt11char_traitsIcESaIcEEEEJEERT0_RSt11_Tuple_implIXT_EJS8_DpT1_EE
FNDA:71,_ZSt12__get_helperILm1ESt14default_deleteINSt7__cxx1118basic_stringstreamIcSt11char_traitsIcESaIcEEEEJEERT0_RSt11_Tuple_implIXT_EJS8_DpT1_EE
FN:1381,_ZSt12__get_helperILm0EPNSt7__cxx1112basic_stringIcSt11char_traitsIcESaIcEEEJSt14default_deleteIS5_EEERT0_RSt11_Tuple_implIXT_EJS9_DpT1_EE
FNDA:263,_ZSt12__get_helperILm0EPNSt7__cxx1112basic_stringIcSt11char_traitsIcESaIcEEEJSt14default_deleteIS5_EEERT0_RSt11_Tuple_implIXT_EJS9_DpT1_EE
FN:1381,_ZSt12__get_helperILm0EPNSt7__cxx1118basic_stringstreamIcSt11char_traitsIcESaIcEEEJSt14default_deleteIS5_EEERT0_RSt11_Tuple_implIXT_EJS9_DpT1_EE
FNDA:142,_ZSt12__get_helperILm0EPNSt7__cxx1118basic_stringstreamIcSt11char_traitsIcESaIcEEEJSt14default_deleteIS5_EEERT0_RSt11_Tuple_implIXT_EJS9_DpT1_EE
FN:1397,_ZSt3getILm1EJPNSt7__cxx1112basic_stringIcSt11char_traitsIcESaIcEEESt14default_deleteIS5_EEERNSt13tuple_elementIXT_ESt5tupleIJDpT0_EEE4typeERSD_
FNDA:0,_ZSt3getILm1EJPNSt7__cxx1112basic_stringIcSt11char_traitsIcESaIcEEESt14default_deleteIS5_EEERNSt13tuple_elementIXT_ESt5tupleIJDpT0_EEE4typeERSD_
FN:1397,_ZSt3getILm1EJPNSt7__cxx1118basic_stringstreamIcSt11char_traitsIcESaIcEEESt14default_deleteIS5_EEERNSt13tuple_elementIXT_ESt5tupleIJDpT0_EEE4typeERSD_
FNDA:71,_ZSt3getILm1EJPNSt7__cxx1118basic_stringstreamIcSt11char_traitsIcESaIcEEESt14default_deleteIS5_EEERNSt13tuple_elementIXT_ESt5tupleIJDpT0_EEE4typeERSD_
FN:1397,_ZSt3getILm0EJPNSt7__cxx1112basic_stringIcSt11char_traitsIcESaIcEEESt14default_deleteIS5_EEERNSt13tuple_elementIXT_ESt5tupleIJDpT0_EEE4typeERSD_
FNDA:263,_ZSt3getILm0EJPNSt7__cxx1112basic_stringIcSt11char_traitsIcESaIcEEESt14default_deleteIS5_EEERNSt13tuple_elementIXT_ESt5tupleIJDpT0_EEE4typeERSD_
FN:1397,_ZSt3getILm0EJPNSt7__cxx1118basic_stringstreamIcSt11char_traitsIcESaIcEEESt14default_deleteIS5_EEERNSt13tuple_elementIXT_ESt5tupleIJDpT0_EEE4typeERSD_
FNDA:142,_ZSt3getILm0EJPNSt7__cxx1118basic_stringstreamIcSt11char_traitsIcESaIcEEESt14default_deleteIS5_EEERNSt13tuple_elementIXT_ESt5tupleIJDpT0_EEE4typeERSD_
DA:80,263
DA:81,263
DA:124,0
DA:124,71
DA:189,263
DA:190,263
DA:233,263
DA:233,142
DA:268,263
DA:268,142
DA:279,263
DA:280,263
DA:424,0
DA:424,71
DA:430,263
DA:431,263
DA:1053,263
DA:1055,263
DA:1381,0
DA:1382,0
DA:1381,71
DA:1382,71
DA:1381,263
DA:1382,263
DA:1381,142
DA:1382,142
DA:1397,0
DA:1398,0
DA:1397,71
DA:1398,71
DA:1397,263
DA:1398,263
DA:1397,142
DA:1398,142
end_of_record
SF:/home/sofia/form/googletest/googletest/include/gtest/internal/gtest-internal.h
FN:451,_ZN7testing8internal15TestFactoryBaseD2Ev
FNDA:10,_ZN7testing8internal15TestFactoryBaseD2Ev
FN:451,_ZN7testing8internal15TestFactoryBaseD0Ev
FNDA:0,_ZN7testing8internal15TestFactoryBaseD0Ev
FN:458,_ZN7testing8internal15TestFactoryBaseC2Ev
FNDA:10,_ZN7testing8internal15TestFactoryBaseC2Ev
FN:470,_ZN7testing8internal15TestFactoryImplI19Teor5_TestTrue_TestE10CreateTestEv
FNDA:1,_ZN7testing8internal15TestFactoryImplI19Teor5_TestTrue_TestE10CreateTestEv
FN:470,_ZN7testing8internal15TestFactoryImplI20Teor5_TestFalse_TestE10CreateTestEv
FNDA:1,_ZN7testing8internal15TestFactoryImplI20Teor5_TestFalse_TestE10CreateTestEv
FN:470,_ZN7testing8internal15TestFactoryImplI38СorrectBracketSequence_SmallTrue_TestE10CreateTestEv
FNDA:1,_ZN7testing8internal15TestFactoryImplI38СorrectBracketSequence_SmallTrue_TestE10CreateTestEv
FN:470,_ZN7testing8internal15TestFactoryImplI25Arifmetics_TestFalse_TestE10CreateTestEv
FNDA:1,_ZN7testing8internal15TestFactoryImplI25Arifmetics_TestFalse_TestE10CreateTestEv
FN:470,_ZN7testing8internal15TestFactoryImplI24Arifmetics_TestTrue_TestE10CreateTestEv
FNDA:1,_ZN7testing8internal15TestFactoryImplI24Arifmetics_TestTrue_TestE10CreateTestEv
FN:470,_ZN7testing8internal15TestFactoryImplI19AThanB_BIGTEST_TestE10CreateTestEv
FNDA:1,_ZN7testing8internal15TestFactoryImplI19AThanB_BIGTEST_TestE10CreateTestEv
FN:470,_ZN7testing8internal15TestFactoryImplI22AThanB_SmallFalse_TestE10CreateTestEv
FNDA:1,_ZN7testing8internal15TestFactoryImplI22AThanB_SmallFalse_TestE10CreateTestEv
FN:470,_ZN7testing8internal15TestFactoryImplI21AThanB_SmallTrue_TestE10CreateTestEv
FNDA:1,_ZN7testing8internal15TestFactoryImplI21AThanB_SmallTrue_TestE10CreateTestEv
FN:470,_ZN7testing8internal15TestFactoryImplI36СorrectBracketSequence_BIGTEST_TestE10CreateTestEv
FNDA:1,_ZN7testing8internal15TestFactoryImplI36СorrectBracketSequence_BIGTEST_TestE10CreateTestEv
FN:470,_ZN7testing8internal15TestFactoryImplI39СorrectBracketSequence_SmallFalse_TestE10CreateTestEv
FNDA:1,_ZN7testing8internal15TestFactoryImplI39СorrectBracketSequence_SmallFalse_TestE10CreateTestEv
FN:491,_ZN7testing8internal12CodeLocationC2ERKNSt7__cxx1112basic_stringIcSt11char_traitsIcESaIcEEEi
FNDA:10,_ZN7testing8internal12CodeLocationC2ERKNSt7__cxx1112basic_stringIcSt11char_traitsIcESaIcEEEi
FN:504,_ZN7testing8internal19GetNotDefaultOrNullEPFvvES2_
FNDA:40,_ZN7testing8internal19GetNotDefaultOrNullEPFvvES2_
FN:519,_ZN7testing8internal16SuiteApiResolverINS_4TestEE19GetSetUpCaseOrSuiteEPKci
FNDA:10,_ZN7testing8internal16SuiteApiResolverINS_4TestEE19GetSetUpCaseOrSuiteEPKci
FN:540,_ZN7testing8internal16SuiteApiResolverINS_4TestEE22GetTearDownCaseOrSuiteEPKci
FNDA:10,_ZN7testing8internal16SuiteApiResolverINS_4TestEE22GetTearDownCaseOrSuiteEPKci
DA:451,0
DA:451,10
DA:458,10
DA:470,1
DA:470,1
DA:470,1
DA:470,1
DA:470,1
DA:470,1
DA:470,1
DA:470,1
DA:470,1
DA:470,1
DA:491,10
DA:492,10
DA:504,40
DA:506,40
DA:519,10
DA:523,10
DA:525,10
DA:527,10
DA:530,0
DA:532,10
DA:540,10
DA:544,10
DA:546,10
DA:548,10
DA:551,0
DA:553,10
end_of_record
SF:/home/sofia/form/googletest/googletest/include/gtest/gtest-assertion-result.h
FN:155,_ZN7testing15AssertionResultC2IbEERKT_PNSt9enable_ifIXntsrSt14is_convertibleIS2_S0_E5valueEvE4typeE
FNDA:263,_ZN7testing15AssertionResultC2IbEERKT_PNSt9enable_ifIXntsrSt14is_convertibleIS2_S0_E5valueEvE4typeE
FN:174,_ZNK7testing15AssertionResultcvbEv
FNDA:263,_ZNK7testing15AssertionResultcvbEv
DA:155,263
DA:161,263
DA:174,263
end_of_record
SF:/home/sofia/form/tests.cpp
FN:6,_Z21CreateBracketSequenceB5cxx11mPb
FNDA:100,_Z21CreateBracketSequenceB5cxx11mPb
FN:29,_Z12CreateATranBB5cxx11mPb
FNDA:100,_Z12CreateATranBB5cxx11mPb
FN:55,_ZN38СorrectBracketSequence_SmallTrue_TestC2Ev
FNDA:1,_ZN38СorrectBracketSequence_SmallTrue_TestC2Ev
FN:55,_ZN38СorrectBracketSequence_SmallTrue_Test8TestBodyEv
FNDA:1,_ZN38СorrectBracketSequence_SmallTrue_Test8TestBodyEv
FN:55,_ZN38СorrectBracketSequence_SmallTrue_TestD2Ev
FNDA:1,_ZN38СorrectBracketSequence_SmallTrue_TestD2Ev
FN:55,_ZN38СorrectBracketSequence_SmallTrue_TestD0Ev
FNDA:1,_ZN38СorrectBracketSequence_SmallTrue_TestD0Ev
FN:69,_ZN39СorrectBracketSequence_SmallFalse_TestC2Ev
FNDA:1,_ZN39СorrectBracketSequence_SmallFalse_TestC2Ev
FN:69,_ZN39СorrectBracketSequence_SmallFalse_Test8TestBodyEv
FNDA:1,_ZN39СorrectBracketSequence_SmallFalse_Test8TestBodyEv
FN:69,_ZN39СorrectBracketSequence_SmallFalse_TestD2Ev
FNDA:1,_ZN39СorrectBracketSequence_SmallFalse_TestD2Ev
FN:69,_ZN39СorrectBracketSequence_SmallFalse_TestD0Ev
FNDA:1,_ZN39СorrectBracketSequence_SmallFalse_TestD0Ev
FN:82,_ZN36СorrectBracketSequence_BIGTEST_TestC2Ev
FNDA:1,_ZN36СorrectBracketSequence_BIGTEST_TestC2Ev
FN:82,_ZN36СorrectBracketSequence_BIGTEST_Test8TestBodyEv
FNDA:1,_ZN36СorrectBracketSequence_BIGTEST_Test8TestBodyEv
FN:82,_ZN36СorrectBracketSequence_BIGTEST_TestD0Ev
FNDA:1,_ZN36СorrectBracketSequence_BIGTEST_TestD0Ev
FN:82,_ZN36СorrectBracketSequence_BIGTEST_TestD2Ev
FNDA:1,_ZN36СorrectBracketSequence_BIGTEST_TestD2Ev
FN:99,_ZN21AThanB_SmallTrue_TestC2Ev
FNDA:1,_ZN21AThanB_SmallTrue_TestC2Ev
FN:99,_ZN21AThanB_SmallTrue_Test8TestBodyEv
FNDA:1,_ZN21AThanB_SmallTrue_Test8TestBodyEv
FN:99,_ZN21AThanB_SmallTrue_TestD2Ev
FNDA:1,_ZN21AThanB_SmallTrue_TestD2Ev
FN:99,_ZN21AThanB_SmallTrue_TestD0Ev
FNDA:1,_ZN21AThanB_SmallTrue_TestD0Ev
FN:112,_ZN22AThanB_SmallFalse_TestD0Ev
FNDA:1,_ZN22AThanB_SmallFalse_TestD0Ev
FN:112,_ZN22AThanB_SmallFalse_TestD2Ev
FNDA:1,_ZN22AThanB_SmallFalse_TestD2Ev
FN:112,_ZN22AThanB_SmallFalse_Test8TestBodyEv
FNDA:1,_ZN22AThanB_SmallFalse_Test8TestBodyEv
FN:112,_ZN22AThanB_SmallFalse_TestC2Ev
FNDA:1,_ZN22AThanB_SmallFalse_TestC2Ev
FN:127,_ZN19AThanB_BIGTEST_TestD0Ev
FNDA:1,_ZN19AThanB_BIGTEST_TestD0Ev
FN:127,_ZN19AThanB_BIGTEST_TestD2Ev
FNDA:1,_ZN19AThanB_BIGTEST_TestD2Ev
FN:127,_ZN19AThanB_BIGTEST_Test8TestBodyEv
FNDA:1,_ZN19AThanB_BIGTEST_Test8TestBodyEv
FN:127,_ZN19AThanB_BIGTEST_TestC2Ev
FNDA:1,_ZN19AThanB_BIGTEST_TestC2Ev
FN:145,_ZN24Arifmetics_TestTrue_Test8TestBodyEv
FNDA:1,_ZN24Arifmetics_TestTrue_Test8TestBodyEv
FN:145,_ZN24Arifmetics_TestTrue_TestD2Ev
FNDA:1,_ZN24Arifmetics_TestTrue_TestD2Ev
FN:145,_ZN24Arifmetics_TestTrue_TestD0Ev
FNDA:1,_ZN24Arifmetics_TestTrue_TestD0Ev
FN:145,_ZN24Arifmetics_TestTrue_TestC2Ev
FNDA:1,_ZN24Arifmetics_TestTrue_TestC2Ev
FN:164,_ZN25Arifmetics_TestFalse_TestD2Ev
FNDA:1,_ZN25Arifmetics_TestFalse_TestD2Ev
FN:164,_ZN25Arifmetics_TestFalse_TestD0Ev
FNDA:1,_ZN25Arifmetics_TestFalse_TestD0Ev
FN:164,_ZN25Arifmetics_TestFalse_TestC2Ev
FNDA:1,_ZN25Arifmetics_TestFalse_TestC2Ev
FN:164,_ZN25Arifmetics_TestFalse_Test8TestBodyEv
FNDA:1,_ZN25Arifmetics_TestFalse_Test8TestBodyEv
FN:195,_ZN19Teor5_TestTrue_TestD0Ev
FNDA:1,_ZN19Teor5_TestTrue_TestD0Ev
FN:195,_ZN19Teor5_TestTrue_Test8TestBodyEv
FNDA:1,_ZN19Teor5_TestTrue_Test8TestBodyEv
FN:195,_ZN19Teor5_TestTrue_TestD2Ev
FNDA:1,_ZN19Teor5_TestTrue_TestD2Ev
FN:195,_ZN19Teor5_TestTrue_TestC2Ev
FNDA:1,_ZN19Teor5_TestTrue_TestC2Ev
FN:220,_ZN20Teor5_TestFalse_Test8TestBodyEv
FNDA:1,_ZN20Teor5_TestFalse_Test8TestBodyEv
FN:220,_ZN20Teor5_TestFalse_TestD2Ev
FNDA:1,_ZN20Teor5_TestFalse_TestD2Ev
FN:220,_ZN20Teor5_TestFalse_TestD0Ev
FNDA:1,_ZN20Teor5_TestFalse_TestD0Ev
FN:220,_ZN20Teor5_TestFalse_TestC2Ev
FNDA:1,_ZN20Teor5_TestFalse_TestC2Ev
FN:246,main
FNDA:1,main
DA:6,100
DA:7,100
DA:8,100
DA:9,100
DA:10,100
DA:11,24850
DA:12,24750
DA:13,12434
DA:14,12434
DA:16,12316
DA:17,12316
DA:19,24750
DA:20,11471
DA:23,100
DA:24,48
DA:26,100
DA:27,0
DA:29,100
DA:30,100
DA:31,100
DA:32,100
DA:33,100
DA:34,100
DA:35,100
DA:36,19900
DA:37,19800
DA:38,10022
DA:39,10022
DA:40,10022
DA:41,9912
DA:44,9778
DA:45,9778
DA:46,9778
DA:49,100
DA:50,89
DA:52,100
DA:53,0
DA:55,1
DA:55,1
DA:55,1
DA:55,1
DA:56,1
DA:57,1
DA:58,1
DA:59,1
DA:60,1
DA:61,1
DA:62,1
DA:63,1
DA:64,1
DA:65,1
DA:66,1
DA:67,1
DA:69,1
DA:69,1
DA:69,1
DA:69,1
DA:70,1
DA:71,1
DA:72,1
DA:73,1
DA:74,1
DA:75,1
DA:76,1
DA:77,1
DA:78,1
DA:79,1
DA:80,1
DA:82,1
DA:82,1
DA:82,1
DA:82,1
DA:83,1
DA:84,1
DA:85,1
DA:86,1
DA:87,1
DA:88,101
DA:89,100
DA:90,100
DA:91,100
DA:92,1
DA:94,99
DA:96,100
DA:97,1
DA:99,1
DA:99,1
DA:99,1
DA:99,1
DA:100,1
DA:101,1
DA:102,1
DA:103,1
DA:104,1
DA:105,1
DA:106,1
DA:107,1
DA:108,1
DA:109,1
DA:110,1
DA:112,1
DA:112,1
DA:112,1
DA:112,1
DA:113,1
DA:114,1
DA:115,1
DA:116,1
DA:117,1
DA:118,1
DA:119,1
DA:120,1
DA:121,1
DA:122,1
DA:123,1
DA:124,1
DA:127,1
DA:127,1
DA:127,1
DA:127,1
DA:128,1
DA:129,1
DA:130,1
DA:131,1
DA:132,1
DA:133,1
DA:134,101
DA:135,100
DA:136,100
DA:137,100
DA:138,1
DA:140,99
DA:142,100
DA:143,1
DA:145,1
DA:145,1
DA:145,1
DA:145,1
DA:146,1
DA:147,1
DA:148,1
DA:149,1
DA:150,1
DA:151,1
DA:152,1
DA:153,1
DA:154,1
DA:155,1
DA:156,1
DA:157,1
DA:158,1
DA:159,1
DA:160,1
DA:161,1
DA:164,1
DA:164,1
DA:164,1
DA:164,1
DA:165,1
DA:166,1
DA:167,1
DA:168,1
DA:169,1
DA:170,1
DA:171,1
DA:172,1
DA:173,1
DA:174,1
DA:175,1
DA:176,1
DA:177,1
DA:178,1
DA:179,1
DA:180,1
DA:181,1
DA:195,1
DA:195,1
DA:195,1
DA:195,1
DA:196,1
DA:197,1
DA:198,1
DA:199,1
DA:200,1
DA:201,1
DA:202,1
DA:203,1
DA:204,1
DA:205,1
DA:206,1
DA:207,1
DA:208,1
DA:209,1
DA:210,1
DA:211,1
DA:212,1
DA:213,1
DA:214,1
DA:215,1
DA:216,1
DA:217,1
DA:218,1
DA:220,1
DA:220,1
DA:220,1
DA:220,1
DA:221,1
DA:222,1
DA:223,1
DA:224,1
DA:225,1
DA:226,1
DA:227,1
DA:228,1
DA:229,1
DA:230,1
DA:231,1
DA:232,1
DA:233,1
DA:234,1
DA:235,1
DA:236,1
DA:237,1
DA:238,1
DA:239,1
DA:240,1
DA:241,1
DA:242,1
DA:243,1
DA:246,1
DA:247,1
DA:248,1
end_of_record
SF:/usr/include/c++/11/ext/type_traits.h
FN:152,_ZN9__gnu_cxx17__is_null_pointerIcEEbPT_
FNDA:0,_ZN9__gnu_cxx17__is_null_pointerIcEEbPT_
FN:152,_ZN9__gnu_cxx17__is_null_pointerIKcEEbPT_
FNDA:727,_ZN9__gnu_cxx17__is_null_pointerIKcEEbPT_
DA:152,0
DA:153,0
DA:152,727
DA:153,727
end_of_record
SF:/usr/include/c++/11/bits/stl_iterator_base_types.h
FN:238,_ZSt19__iterator_categoryIPcENSt15iterator_traitsIT_E17iterator_categoryERKS2_
FNDA:0,_ZSt19__iterator_categoryIPcENSt15iterator_traitsIT_E17iterator_categoryERKS2_
FN:238,_ZSt19__iterator_categoryIPKcENSt15iterator_traitsIT_E17iterator_categoryERKS3_
FNDA:727,_ZSt19__iterator_categoryIPKcENSt15iterator_traitsIT_E17iterator_categoryERKS3_
DA:238,0
DA:239,0
DA:238,727
DA:239,727
end_of_record
SF:/usr/include/c++/11/bits/stl_set.h
FN:281,_ZNSt3setI9SituationSt4lessIS0_ESaIS0_EED2Ev
FNDA:45152,_ZNSt3setI9SituationSt4lessIS0_ESaIS0_EED2Ev
DA:281,45152
end_of_record
SF:/usr/include/c++/11/bits/unique_ptr.h
FN:79,_ZNKSt14default_deleteINSt7__cxx1112basic_stringIcSt11char_traitsIcESaIcEEEEclEPS5_
FNDA:0,_ZNKSt14default_deleteINSt7__cxx1112basic_stringIcSt11char_traitsIcESaIcEEEEclEPS5_
FN:79,_ZNKSt14default_deleteINSt7__cxx1118basic_stringstreamIcSt11char_traitsIcESaIcEEEEclEPS5_
FNDA:71,_ZNKSt14default_deleteINSt7__cxx1118basic_stringstreamIcSt11char_traitsIcESaIcEEEEclEPS5_
FN:154,_ZNSt15__uniq_ptr_implINSt7__cxx1112basic_stringIcSt11char_traitsIcESaIcEEESt14default_deleteIS5_EEC2Ev
FNDA:263,_ZNSt15__uniq_ptr_implINSt7__cxx1112basic_stringIcSt11char_traitsIcESaIcEEESt14default_deleteIS5_EEC2Ev
FN:172,_ZNSt15__uniq_ptr_implINSt7__cxx1112basic_stringIcSt11char_traitsIcESaIcEEESt14default_deleteIS5_EE6_M_ptrEv
FNDA:263,_ZNSt15__uniq_ptr_implINSt7__cxx1112basic_stringIcSt11char_traitsIcESaIcEEESt14default_deleteIS5_EE6_M_ptrEv
FN:172,_ZNSt15__uniq_ptr_implINSt7__cxx1118basic_stringstreamIcSt11char_traitsIcESaIcEEESt14default_deleteIS5_EE6_M_ptrEv
FNDA:142,_ZNSt15__uniq_ptr_implINSt7__cxx1118basic_stringstreamIcSt11char_traitsIcESaIcEEESt14default_deleteIS5_EE6_M_ptrEv
FN:174,_ZNSt15__uniq_ptr_implINSt7__cxx1112basic_stringIcSt11char_traitsIcESaIcEEESt14default_deleteIS5_EE10_M_deleterEv
FNDA:0,_ZNSt15__uniq_ptr_implINSt7__cxx1112basic_stringIcSt11char_traitsIcESaIcEEESt14default_deleteIS5_EE10_M_deleterEv
FN:174,_ZNSt15__uniq_ptr_implINSt7__cxx1118basic_stringstreamIcSt11char_traitsIcESaIcEEESt14default_deleteIS5_EE10_M_deleterEv
FNDA:71,_ZNSt15__uniq_ptr_implINSt7__cxx1118basic_stringstreamIcSt11char_traitsIcESaIcEEESt14default_deleteIS5_EE10_M_deleterEv
FN:269,_ZNSt10unique_ptrINSt7__cxx1112basic_stringIcSt11char_traitsIcESaIcEEESt14default_deleteIS5_EEC2IS7_vEEv
FNDA:263,_ZNSt10unique_ptrINSt7__cxx1112basic_stringIcSt11char_traitsIcESaIcEEESt14default_deleteIS5_EEC2IS7_vEEv
FN:355,_ZNSt10unique_ptrINSt7__cxx1112basic_stringIcSt11char_traitsIcESaIcEEESt14default_deleteIS5_EED2Ev
FNDA:263,_ZNSt10unique_ptrINSt7__cxx1112basic_stringIcSt11char_traitsIcESaIcEEESt14default_deleteIS5_EED2Ev
FN:355,_ZNSt10unique_ptrINSt7__cxx1118basic_stringstreamIcSt11char_traitsIcESaIcEEESt14default_deleteIS5_EED2Ev
FNDA:71,_ZNSt10unique_ptrINSt7__cxx1118basic_stringstreamIcSt11char_traitsIcESaIcEEESt14default_deleteIS5_EED2Ev
FN:426,_ZNSt10unique_ptrINSt7__cxx1112basic_stringIcSt11char_traitsIcESaIcEEESt14default_deleteIS5_EE11get_deleterEv
FNDA:0,_ZNSt10unique_ptrINSt7__cxx1112basic_stringIcSt11char_traitsIcESaIcEEESt14default_deleteIS5_EE11get_deleterEv
FN:426,_ZNSt10unique_ptrINSt7__cxx1118basic_stringstreamIcSt11char_traitsIcESaIcEEESt14default_deleteIS5_EE11get_deleterEv
FNDA:71,_ZNSt10unique_ptrINSt7__cxx1118basic_stringstreamIcSt11char_traitsIcESaIcEEESt14default_deleteIS5_EE11get_deleterEv
DA:79,0
DA:85,0
DA:86,0
DA:79,71
DA:85,71
DA:86,71
DA:154,263
DA:172,263
DA:172,142
DA:174,0
DA:174,71
DA:269,263
DA:270,263
DA:271,263
DA:355,263
DA:359,263
DA:360,263
DA:361,0
DA:362,263
DA:363,263
DA:355,71
DA:359,71
DA:360,71
DA:361,71
DA:362,71
DA:363,71
DA:426,0
DA:427,0
DA:426,71
DA:427,71
end_of_record
SF:/usr/include/c++/11/bits/stl_iterator.h
FN:1010,_ZN9__gnu_cxx17__normal_iteratorIPK4RuleSt6vectorIS1_SaIS1_EEEC2ERKS3_
FNDA:1052,_ZN9__gnu_cxx17__normal_iteratorIPK4RuleSt6vectorIS1_SaIS1_EEEC2ERKS3_
FN:1025,_ZNK9__gnu_cxx17__normal_iteratorIPK4RuleSt6vectorIS1_SaIS1_EEEdeEv
FNDA:1072,_ZNK9__gnu_cxx17__normal_iteratorIPK4RuleSt6vectorIS1_SaIS1_EEEdeEv
FN:1035,_ZN9__gnu_cxx17__normal_iteratorIPK4RuleSt6vectorIS1_SaIS1_EEEppEv
FNDA:1072,_ZN9__gnu_cxx17__normal_iteratorIPK4RuleSt6vectorIS1_SaIS1_EEEppEv
FN:1088,_ZNK9__gnu_cxx17__normal_iteratorIPK4RuleSt6vectorIS1_SaIS1_EEE4baseEv
FNDA:3196,_ZNK9__gnu_cxx17__normal_iteratorIPK4RuleSt6vectorIS1_SaIS1_EEE4baseEv
FN:1145,_ZN9__gnu_cxxneIPK4RuleSt6vectorIS1_SaIS1_EEEEbRKNS_17__normal_iteratorIT_T0_EESC_
FNDA:1345,_ZN9__gnu_cxxneIPK4RuleSt6vectorIS1_SaIS1_EEEEbRKNS_17__normal_iteratorIT_T0_EESC_
DA:1010,1052
DA:1011,1052
DA:1025,1072
DA:1026,1072
DA:1035,1072
DA:1037,1072
DA:1038,1072
DA:1088,3196
DA:1089,3196
DA:1145,1345
DA:1148,1345
end_of_record
SF:/usr/include/c++/11/bits/basic_string.h
FN:251,_ZNSt7__cxx1112basic_stringIcSt11char_traitsIcESaIcEE16_M_construct_auxIPcEEvT_S7_St12__false_type
FNDA:0,_ZNSt7__cxx1112basic_stringIcSt11char_traitsIcESaIcEE16_M_construct_auxIPcEEvT_S7_St12__false_type
FN:271,_ZNSt7__cxx1112basic_stringIcSt11char_traitsIcESaIcEE12_M_constructIPcEEvT_S7_
FNDA:0,_ZNSt7__cxx1112basic_stringIcSt11char_traitsIcESaIcEE12_M_constructIPcEEvT_S7_
FN:533,_ZNSt7__cxx1112basic_stringIcSt11char_traitsIcESaIcEEC2IS3_EEPKcRKS3_
FNDA:715,_ZNSt7__cxx1112basic_stringIcSt11char_traitsIcESaIcEEC2IS3_EEPKcRKS3_
DA:251,0
DA:255,0
DA:256,0
DA:271,0
DA:274,0
DA:275,0
DA:533,715
DA:534,715
DA:536,715
DA:539,715
DA:540,715
end_of_record
SF:/home/sofia/form/hpp/Situation.hpp
end_of_record
SF:/usr/include/c++/11/bits/stl_tree.h
FN:234,_ZNSt13_Rb_tree_nodeI9SituationE9_M_valptrEv
FNDA:100058,_ZNSt13_Rb_tree_nodeI9SituationE9_M_valptrEv
FN:547,_ZNSt8_Rb_treeI9SituationS0_St9_IdentityIS0_ESt4lessIS0_ESaIS0_EE21_M_get_Node_allocatorEv
FNDA:200116,_ZNSt8_Rb_treeI9SituationS0_St9_IdentityIS0_ESt4lessIS0_ESaIS0_EE21_M_get_Node_allocatorEv
FN:564,_ZNSt8_Rb_treeI9SituationS0_St9_IdentityIS0_ESt4lessIS0_ESaIS0_EE11_M_put_nodeEPSt13_Rb_tree_nodeIS0_E
FNDA:50029,_ZNSt8_Rb_treeI9SituationS0_St9_IdentityIS0_ESt4lessIS0_ESaIS0_EE11_M_put_nodeEPSt13_Rb_tree_nodeIS0_E
FN:618,_ZNSt8_Rb_treeI9SituationS0_St9_IdentityIS0_ESt4lessIS0_ESaIS0_EE15_M_destroy_nodeEPSt13_Rb_tree_nodeIS0_E
FNDA:50029,_ZNSt8_Rb_treeI9SituationS0_St9_IdentityIS0_ESt4lessIS0_ESaIS0_EE15_M_destroy_nodeEPSt13_Rb_tree_nodeIS0_E
FN:629,_ZNSt8_Rb_treeI9SituationS0_St9_IdentityIS0_ESt4lessIS0_ESaIS0_EE12_M_drop_nodeEPSt13_Rb_tree_nodeIS0_E
FNDA:50029,_ZNSt8_Rb_treeI9SituationS0_St9_IdentityIS0_ESt4lessIS0_ESaIS0_EE12_M_drop_nodeEPSt13_Rb_tree_nodeIS0_E
FN:734,_ZNKSt8_Rb_treeI9SituationS0_St9_IdentityIS0_ESt4lessIS0_ESaIS0_EE9_M_mbeginEv
FNDA:108055,_ZNKSt8_Rb_treeI9SituationS0_St9_IdentityIS0_ESt4lessIS0_ESaIS0_EE9_M_mbeginEv
FN:738,_ZNSt8_Rb_treeI9SituationS0_St9_IdentityIS0_ESt4lessIS0_ESaIS0_EE8_M_beginEv
FNDA:108055,_ZNSt8_Rb_treeI9SituationS0_St9_IdentityIS0_ESt4lessIS0_ESaIS0_EE8_M_beginEv
FN:779,_ZNSt8_Rb_treeI9SituationS0_St9_IdentityIS0_ESt4lessIS0_ESaIS0_EE7_S_leftEPSt18_Rb_tree_node_base
FNDA:200554,_ZNSt8_Rb_treeI9SituationS0_St9_IdentityIS0_ESt4lessIS0_ESaIS0_EE7_S_leftEPSt18_Rb_tree_node_base
FN:787,_ZNSt8_Rb_treeI9SituationS0_St9_IdentityIS0_ESt4lessIS0_ESaIS0_EE8_S_rightEPSt18_Rb_tree_node_base
FNDA:117656,_ZNSt8_Rb_treeI9SituationS0_St9_IdentityIS0_ESt4lessIS0_ESaIS0_EE8_S_rightEPSt18_Rb_tree_node_base
FN:983,_ZNSt8_Rb_treeI9SituationS0_St9_IdentityIS0_ESt4lessIS0_ESaIS0_EED2Ev
FNDA:45152,_ZNSt8_Rb_treeI9SituationS0_St9_IdentityIS0_ESt4lessIS0_ESaIS0_EED2Ev
FN:1883,_ZNSt8_Rb_treeI9SituationS0_St9_IdentityIS0_ESt4lessIS0_ESaIS0_EE8_M_eraseEPSt13_Rb_tree_nodeIS0_E
FNDA:53660,_ZNSt8_Rb_treeI9SituationS0_St9_IdentityIS0_ESt4lessIS0_ESaIS0_EE8_M_eraseEPSt13_Rb_tree_nodeIS0_E
DA:234,100058
DA:235,100058
DA:547,200116
DA:548,200116
DA:564,50029
DA:565,50029
DA:618,50029
DA:623,50029
DA:624,50029
DA:626,50029
DA:629,50029
DA:631,50029
DA:632,50029
DA:633,50029
DA:734,108055
DA:735,108055
DA:738,108055
DA:739,108055
DA:779,200554
DA:780,200554
DA:787,117656
DA:788,117656
DA:983,45152
DA:984,45152
DA:1883,53660
DA:1887,62168
DA:1889,8508
DA:1890,8508
DA:1891,8508
DA:1892,8508
DA:1894,53660
end_of_record
SF:/usr/include/c++/11/bits/stl_construct.h
FN:109,_ZSt10_ConstructI4RuleJRKS0_EEvPT_DpOT0_
FNDA:1163,_ZSt10_ConstructI4RuleJRKS0_EEvPT_DpOT0_
FN:146,_ZSt8_DestroyISt3setI9SituationSt4lessIS1_ESaIS1_EEEvPT_
FNDA:45152,_ZSt8_DestroyISt3setI9SituationSt4lessIS1_ESaIS1_EEEvPT_
FN:146,_ZSt8_DestroyI4RuleEvPT_
FNDA:1471,_ZSt8_DestroyI4RuleEvPT_
FN:160,_ZNSt12_Destroy_auxILb0EE9__destroyIPSt3setI9SituationSt4lessIS3_ESaIS3_EEEEvT_S9_
FNDA:263,_ZNSt12_Destroy_auxILb0EE9__destroyIPSt3setI9SituationSt4lessIS3_ESaIS3_EEEEvT_S9_
FN:160,_ZNSt12_Destroy_auxILb0EE9__destroyIP4RuleEEvT_S4_
FNDA:337,_ZNSt12_Destroy_auxILb0EE9__destroyIP4RuleEEvT_S4_
FN:172,_ZNSt12_Destroy_auxILb1EE9__destroyIP6LetterEEvT_S4_
FNDA:1658921,_ZNSt12_Destroy_auxILb1EE9__destroyIP6LetterEEvT_S4_
FN:182,_ZSt8_DestroyIPSt3setI9SituationSt4lessIS1_ESaIS1_EEEvT_S7_
FNDA:263,_ZSt8_DestroyIPSt3setI9SituationSt4lessIS1_ESaIS1_EEEvT_S7_
FN:182,_ZSt8_DestroyIP4RuleEvT_S2_
FNDA:337,_ZSt8_DestroyIP4RuleEvT_S2_
FN:182,_ZSt8_DestroyIP6LetterEvT_S2_
FNDA:1658921,_ZSt8_DestroyIP6LetterEvT_S2_
DA:109,1163
DA:119,1163
DA:120,1163
DA:146,45152
DA:151,45152
DA:153,45152
DA:146,1471
DA:151,1471
DA:153,1471
DA:160,263
DA:162,45415
DA:163,45152
DA:164,263
DA:160,337
DA:162,1555
DA:163,1218
DA:164,337
DA:172,1658921
DA:182,263
DA:196,263
DA:197,263
DA:182,337
DA:196,337
DA:197,337
DA:182,1658921
DA:196,1658921
DA:197,1658921
end_of_record
SF:/usr/include/c++/11/bits/stl_uninitialized.h
FN:85,_ZNSt20__uninitialized_copyILb0EE13__uninit_copyIN9__gnu_cxx17__normal_iteratorIPK4RuleSt6vectorIS4_SaIS4_EEEEPS4_EET0_T_SD_SC_
FNDA:273,_ZNSt20__uninitialized_copyILb0EE13__uninit_copyIN9__gnu_cxx17__normal_iteratorIPK4RuleSt6vectorIS4_SaIS4_EEEEPS4_EET0_T_SD_SC_
FN:126,_ZSt18uninitialized_copyIN9__gnu_cxx17__normal_iteratorIPK4RuleSt6vectorIS2_SaIS2_EEEEPS2_ET0_T_SB_SA_
FNDA:273,_ZSt18uninitialized_copyIN9__gnu_cxx17__normal_iteratorIPK4RuleSt6vectorIS2_SaIS2_EEEEPS2_ET0_T_SB_SA_
FN:331,_ZSt22__uninitialized_copy_aIN9__gnu_cxx17__normal_iteratorIPK4RuleSt6vectorIS2_SaIS2_EEEEPS2_S2_ET0_T_SB_SA_RSaIT1_E
FNDA:273,_ZSt22__uninitialized_copy_aIN9__gnu_cxx17__normal_iteratorIPK4RuleSt6vectorIS2_SaIS2_EEEEPS2_S2_ET0_T_SB_SA_RSaIT1_E
DA:85,273
DA:88,273
DA:91,1345
DA:92,1072
DA:93,273
DA:95,0
DA:97,0
DA:98,0
DA:126,273
DA:145,273
DA:151,273
DA:331,273
DA:333,273
end_of_record
SF:/home/sofia/form/googletest/googletest/include/gtest/internal/gtest-port.h
FN:964,_ZN7testing8internal8GTestLog9GetStreamEv
FNDA:0,_ZN7testing8internal8GTestLog9GetStreamEv
DA:964,0
end_of_record
SF:/home/sofia/form/googletest/googletest/include/gtest/gtest-message.h
end_of_record
SF:/usr/include/c++/11/bits/stl_vector.h
FN:97,_ZNSt12_Vector_baseI4RuleSaIS0_EE17_Vector_impl_dataC2Ev
FNDA:283,_ZNSt12_Vector_baseI4RuleSaIS0_EE17_Vector_impl_dataC2Ev
FN:97,_ZNSt12_Vector_baseISt3setI9SituationSt4lessIS1_ESaIS1_EESaIS5_EE17_Vector_impl_dataC2Ev
FNDA:10,_ZNSt12_Vector_baseISt3setI9SituationSt4lessIS1_ESaIS1_EESaIS5_EE17_Vector_impl_dataC2Ev
FN:131,_ZNSt12_Vector_baseI4RuleSaIS0_EE12_Vector_implC2Ev
FNDA:20,_ZNSt12_Vector_baseI4RuleSaIS0_EE12_Vector_implC2Ev
FN:131,_ZNSt12_Vector_baseISt3setI9SituationSt4lessIS1_ESaIS1_EESaIS5_EE12_Vector_implC2Ev
FNDA:10,_ZNSt12_Vector_baseISt3setI9SituationSt4lessIS1_ESaIS1_EESaIS5_EE12_Vector_implC2Ev
FN:136,_ZNSt12_Vector_baseI4RuleSaIS0_EE12_Vector_implC2ERKS1_
FNDA:263,_ZNSt12_Vector_baseI4RuleSaIS0_EE12_Vector_implC2ERKS1_
FN:276,_ZNSt12_Vector_baseI6LetterSaIS0_EE19_M_get_Tp_allocatorEv
FNDA:3147643,_ZNSt12_Vector_baseI6LetterSaIS0_EE19_M_get_Tp_allocatorEv
FN:276,_ZNSt12_Vector_baseISt3setI9SituationSt4lessIS1_ESaIS1_EESaIS5_EE19_M_get_Tp_allocatorEv
FNDA:753,_ZNSt12_Vector_baseISt3setI9SituationSt4lessIS1_ESaIS1_EESaIS5_EE19_M_get_Tp_allocatorEv
FN:276,_ZNSt12_Vector_baseI4RuleSaIS0_EE19_M_get_Tp_allocatorEv
FNDA:951,_ZNSt12_Vector_baseI4RuleSaIS0_EE19_M_get_Tp_allocatorEv
FN:280,_ZNKSt12_Vector_baseI4RuleSaIS0_EE19_M_get_Tp_allocatorEv
FNDA:351,_ZNKSt12_Vector_baseI4RuleSaIS0_EE19_M_get_Tp_allocatorEv
FN:288,_ZNSt12_Vector_baseI4RuleSaIS0_EEC2Ev
FNDA:20,_ZNSt12_Vector_baseI4RuleSaIS0_EEC2Ev
FN:288,_ZNSt12_Vector_baseISt3setI9SituationSt4lessIS1_ESaIS1_EESaIS5_EEC2Ev
FNDA:10,_ZNSt12_Vector_baseISt3setI9SituationSt4lessIS1_ESaIS1_EESaIS5_EEC2Ev
FN:303,_ZNSt12_Vector_baseI4RuleSaIS0_EEC2EmRKS1_
FNDA:263,_ZNSt12_Vector_baseI4RuleSaIS0_EEC2EmRKS1_
FN:333,_ZNSt12_Vector_baseI6LetterSaIS0_EED2Ev
FNDA:890638,_ZNSt12_Vector_baseI6LetterSaIS0_EED2Ev
FN:333,_ZNSt12_Vector_baseI4RuleSaIS0_EED2Ev
FNDA:283,_ZNSt12_Vector_baseI4RuleSaIS0_EED2Ev
FN:333,_ZNSt12_Vector_baseISt3setI9SituationSt4lessIS1_ESaIS1_EESaIS5_EED2Ev
FNDA:10,_ZNSt12_Vector_baseISt3setI9SituationSt4lessIS1_ESaIS1_EESaIS5_EED2Ev
FN:343,_ZNSt12_Vector_baseI4RuleSaIS0_EE11_M_allocateEm
FNDA:317,_ZNSt12_Vector_baseI4RuleSaIS0_EE11_M_allocateEm
FN:350,_ZNSt12_Vector_baseI4RuleSaIS0_EE13_M_deallocateEPS0_m
FNDA:337,_ZNSt12_Vector_baseI4RuleSaIS0_EE13_M_deallocateEPS0_m
FN:350,_ZNSt12_Vector_baseI6LetterSaIS0_EE13_M_deallocateEPS0_m
FNDA:1658921,_ZNSt12_Vector_baseI6LetterSaIS0_EE13_M_deallocateEPS0_m
FN:350,_ZNSt12_Vector_baseISt3setI9SituationSt4lessIS1_ESaIS1_EESaIS5_EE13_M_deallocateEPS5_m
FNDA:237,_ZNSt12_Vector_baseISt3setI9SituationSt4lessIS1_ESaIS1_EESaIS5_EE13_M_deallocateEPS5_m
FN:359,_ZNSt12_Vector_baseI4RuleSaIS0_EE17_M_create_storageEm
FNDA:263,_ZNSt12_Vector_baseI4RuleSaIS0_EE17_M_create_storageEm
FN:487,_ZNSt6vectorISt3setI9SituationSt4lessIS1_ESaIS1_EESaIS5_EEC2Ev
FNDA:10,_ZNSt6vectorISt3setI9SituationSt4lessIS1_ESaIS1_EESaIS5_EEC2Ev
FN:487,_ZNSt6vectorI4RuleSaIS0_EEC2Ev
FNDA:20,_ZNSt6vectorI4RuleSaIS0_EEC2Ev
FN:553,_ZNSt6vectorI4RuleSaIS0_EEC2ERKS2_
FNDA:263,_ZNSt6vectorI4RuleSaIS0_EEC2ERKS2_
FN:678,_ZNSt6vectorISt3setI9SituationSt4lessIS1_ESaIS1_EESaIS5_EED2Ev
FNDA:10,_ZNSt6vectorISt3setI9SituationSt4lessIS1_ESaIS1_EESaIS5_EED2Ev
FN:678,_ZNSt6vectorI4RuleSaIS0_EED2Ev
FNDA:283,_ZNSt6vectorI4RuleSaIS0_EED2Ev
FN:678,_ZNSt6vectorI6LetterSaIS0_EED2Ev
FNDA:890638,_ZNSt6vectorI6LetterSaIS0_EED2Ev
FN:820,_ZNKSt6vectorI4RuleSaIS0_EE5beginEv
FNDA:526,_ZNKSt6vectorI4RuleSaIS0_EE5beginEv
FN:838,_ZNKSt6vectorI4RuleSaIS0_EE3endEv
FNDA:526,_ZNKSt6vectorI4RuleSaIS0_EE3endEv
FN:918,_ZNKSt6vectorI4RuleSaIS0_EE4sizeEv
FNDA:86809,_ZNKSt6vectorI4RuleSaIS0_EE4sizeEv
DA:97,10
DA:98,10
DA:99,10
DA:97,283
DA:98,283
DA:99,283
DA:131,10
DA:133,10
DA:134,10
DA:131,20
DA:133,20
DA:134,20
DA:136,263
DA:137,263
DA:138,263
DA:276,753
DA:277,753
DA:276,951
DA:277,951
DA:276,3147643
DA:277,3147643
DA:280,351
DA:281,351
DA:288,10
DA:288,20
DA:303,263
DA:304,263
DA:305,263
DA:333,10
DA:335,10
DA:336,10
DA:337,10
DA:333,283
DA:335,283
DA:336,283
DA:337,283
DA:333,890638
DA:335,890638
DA:336,890638
DA:337,890638
DA:343,317
DA:346,317
DA:350,237
DA:353,237
DA:354,227
DA:355,237
DA:350,337
DA:353,337
DA:354,317
DA:355,337
DA:350,1658921
DA:353,1658921
DA:354,768283
DA:355,1658921
DA:359,263
DA:361,263
DA:362,263
DA:363,263
DA:364,263
DA:487,10
DA:487,20
DA:553,263
DA:555,263
DA:557,263
DA:558,263
DA:560,263
DA:561,263
DA:678,10
DA:680,10
DA:681,10
DA:683,10
DA:678,283
DA:680,283
DA:681,283
DA:683,283
DA:678,890638
DA:680,890638
DA:681,890638
DA:683,890638
DA:820,526
DA:821,526
DA:838,526
DA:839,526
DA:918,86809
DA:919,86809
end_of_record
SF:/usr/include/c++/11/bits/move.h
FN:49,_ZSt11__addressofISt3setI9SituationSt4lessIS1_ESaIS1_EEEPT_RS6_
FNDA:90304,_ZSt11__addressofISt3setI9SituationSt4lessIS1_ESaIS1_EEEPT_RS6_
FN:49,_ZSt11__addressofI4RuleEPT_RS1_
FNDA:2634,_ZSt11__addressofI4RuleEPT_RS1_
FN:77,_ZSt7forwardIRK4RuleEOT_RNSt16remove_referenceIS3_E4typeE
FNDA:741119,_ZSt7forwardIRK4RuleEOT_RNSt16remove_referenceIS3_E4typeE
FN:104,_ZSt4moveIRPNSt7__cxx1112basic_stringIcSt11char_traitsIcESaIcEEEEONSt16remove_referenceIT_E4typeEOS9_
FNDA:0,_ZSt4moveIRPNSt7__cxx1112basic_stringIcSt11char_traitsIcESaIcEEEEONSt16remove_referenceIT_E4typeEOS9_
FN:104,_ZSt4moveIRPNSt7__cxx1118basic_stringstreamIcSt11char_traitsIcESaIcEEEEONSt16remove_referenceIT_E4typeEOS9_
FNDA:71,_ZSt4moveIRPNSt7__cxx1118basic_stringstreamIcSt11char_traitsIcESaIcEEEEONSt16remove_referenceIT_E4typeEOS9_
FN:104,_ZSt4moveIRSaIcEEONSt16remove_referenceIT_E4typeEOS3_
FNDA:0,_ZSt4moveIRSaIcEEONSt16remove_referenceIT_E4typeEOS3_
DA:49,90304
DA:50,90304
DA:49,2634
DA:50,2634
DA:77,741119
DA:78,741119
DA:104,0
DA:105,0
DA:104,71
DA:105,71
DA:104,0
DA:105,0
end_of_record
SF:/usr/include/c++/11/ext/alloc_traits.h
FN:97,_ZN9__gnu_cxx14__alloc_traitsISaI4RuleES1_E17_S_select_on_copyERKS2_
FNDA:263,_ZN9__gnu_cxx14__alloc_traitsISaI4RuleES1_E17_S_select_on_copyERKS2_
FN:97,_ZN9__gnu_cxx14__alloc_traitsISaIcEcE17_S_select_on_copyERKS1_
FNDA:0,_ZN9__gnu_cxx14__alloc_traitsISaIcEcE17_S_select_on_copyERKS1_
DA:97,263
DA:98,263
DA:97,0
DA:98,0
end_of_record
SF:/usr/include/c++/11/bits/basic_string.tcc
FN:206,_ZNSt7__cxx1112basic_stringIcSt11char_traitsIcESaIcEE12_M_constructIPcEEvT_S7_St20forward_iterator_tag
FNDA:0,_ZNSt7__cxx1112basic_stringIcSt11char_traitsIcESaIcEE12_M_constructIPcEEvT_S7_St20forward_iterator_tag
FN:206,_ZNSt7__cxx1112basic_stringIcSt11char_traitsIcESaIcEE12_M_constructIPKcEEvT_S8_St20forward_iterator_tag
FNDA:727,_ZNSt7__cxx1112basic_stringIcSt11char_traitsIcESaIcEE12_M_constructIPKcEEvT_S8_St20forward_iterator_tag
DA:206,0
DA:211,0
DA:212,0
DA:215,0
DA:217,0
DA:219,0
DA:220,0
DA:225,0
DA:226,0
DA:228,0
DA:229,0
DA:232,0
DA:233,0
DA:206,727
DA:211,727
DA:212,0
DA:215,727
DA:217,727
DA:219,25
DA:220,25
DA:225,727
DA:226,0
DA:228,0
DA:229,0
DA:232,727
DA:233,727
end_of_record
SF:/usr/include/c++/11/bits/alloc_traits.h
FN:463,_ZNSt16allocator_traitsISaI4RuleEE8allocateERS1_m
FNDA:317,_ZNSt16allocator_traitsISaI4RuleEE8allocateERS1_m
FN:495,_ZNSt16allocator_traitsISaISt13_Rb_tree_nodeI9SituationEEE10deallocateERS3_PS2_m
FNDA:50029,_ZNSt16allocator_traitsISaISt13_Rb_tree_nodeI9SituationEEE10deallocateERS3_PS2_m
FN:495,_ZNSt16allocator_traitsISaISt3setI9SituationSt4lessIS1_ESaIS1_EEEE10deallocateERS6_PS5_m
FNDA:227,_ZNSt16allocator_traitsISaISt3setI9SituationSt4lessIS1_ESaIS1_EEEE10deallocateERS6_PS5_m
FN:495,_ZNSt16allocator_traitsISaI4RuleEE10deallocateERS1_PS0_m
FNDA:317,_ZNSt16allocator_traitsISaI4RuleEE10deallocateERS1_PS0_m
FN:495,_ZNSt16allocator_traitsISaI6LetterEE10deallocateERS1_PS0_m
FNDA:768283,_ZNSt16allocator_traitsISaI6LetterEE10deallocateERS1_PS0_m
FN:531,_ZNSt16allocator_traitsISaISt13_Rb_tree_nodeI9SituationEEE7destroyIS1_EEvRS3_PT_
FNDA:50029,_ZNSt16allocator_traitsISaISt13_Rb_tree_nodeI9SituationEEE7destroyIS1_EEvRS3_PT_
FN:562,_ZNSt16allocator_traitsISaI4RuleEE37select_on_container_copy_constructionERKS1_
FNDA:263,_ZNSt16allocator_traitsISaI4RuleEE37select_on_container_copy_constructionERKS1_
FN:562,_ZNSt16allocator_traitsISaIcEE37select_on_container_copy_constructionERKS0_
FNDA:0,_ZNSt16allocator_traitsISaIcEE37select_on_container_copy_constructionERKS0_
FN:845,_ZSt8_DestroyIPSt3setI9SituationSt4lessIS1_ESaIS1_EES5_EvT_S7_RSaIT0_E
FNDA:263,_ZSt8_DestroyIPSt3setI9SituationSt4lessIS1_ESaIS1_EES5_EvT_S7_RSaIT0_E
FN:845,_ZSt8_DestroyIP4RuleS0_EvT_S2_RSaIT0_E
FNDA:337,_ZSt8_DestroyIP4RuleS0_EvT_S2_RSaIT0_E
FN:845,_ZSt8_DestroyIP6LetterS0_EvT_S2_RSaIT0_E
FNDA:1658921,_ZSt8_DestroyIP6LetterS0_EvT_S2_RSaIT0_E
DA:463,317
DA:464,317
DA:495,50029
DA:496,50029
DA:495,227
DA:496,227
DA:495,317
DA:496,317
DA:495,768283
DA:496,768283
DA:531,50029
DA:535,50029
DA:539,50029
DA:562,263
DA:563,263
DA:562,0
DA:563,0
DA:845,263
DA:848,263
DA:849,263
DA:845,337
DA:848,337
DA:849,337
DA:845,1658921
DA:848,1658921
DA:849,1658921
end_of_record
SF:/usr/include/c++/11/ext/new_allocator.h
FN:79,_ZN9__gnu_cxx13new_allocatorIcEC2Ev
FNDA:0,_ZN9__gnu_cxx13new_allocatorIcEC2Ev
FN:79,_ZN9__gnu_cxx13new_allocatorISt3setI9SituationSt4lessIS2_ESaIS2_EEEC2Ev
FNDA:10,_ZN9__gnu_cxx13new_allocatorISt3setI9SituationSt4lessIS2_ESaIS2_EEEC2Ev
FN:79,_ZN9__gnu_cxx13new_allocatorI4RuleEC2Ev
FNDA:20,_ZN9__gnu_cxx13new_allocatorI4RuleEC2Ev
FN:82,_ZN9__gnu_cxx13new_allocatorI4RuleEC2ERKS2_
FNDA:526,_ZN9__gnu_cxx13new_allocatorI4RuleEC2ERKS2_
FN:82,_ZN9__gnu_cxx13new_allocatorIcEC2ERKS1_
FNDA:0,_ZN9__gnu_cxx13new_allocatorIcEC2ERKS1_
FN:89,_ZN9__gnu_cxx13new_allocatorISt13_Rb_tree_nodeI9SituationEED2Ev
FNDA:45152,_ZN9__gnu_cxx13new_allocatorISt13_Rb_tree_nodeI9SituationEED2Ev
FN:89,_ZN9__gnu_cxx13new_allocatorIcED2Ev
FNDA:0,_ZN9__gnu_cxx13new_allocatorIcED2Ev
FN:89,_ZN9__gnu_cxx13new_allocatorI6LetterED2Ev
FNDA:890638,_ZN9__gnu_cxx13new_allocatorI6LetterED2Ev
FN:89,_ZN9__gnu_cxx13new_allocatorI4RuleED2Ev
FNDA:546,_ZN9__gnu_cxx13new_allocatorI4RuleED2Ev
FN:89,_ZN9__gnu_cxx13new_allocatorISt3setI9SituationSt4lessIS2_ESaIS2_EEED2Ev
FNDA:10,_ZN9__gnu_cxx13new_allocatorISt3setI9SituationSt4lessIS2_ESaIS2_EEED2Ev
FN:103,_ZN9__gnu_cxx13new_allocatorI4RuleE8allocateEmPKv
FNDA:317,_ZN9__gnu_cxx13new_allocatorI4RuleE8allocateEmPKv
FN:132,_ZN9__gnu_cxx13new_allocatorI6LetterE10deallocateEPS1_m
FNDA:768283,_ZN9__gnu_cxx13new_allocatorI6LetterE10deallocateEPS1_m
FN:132,_ZN9__gnu_cxx13new_allocatorISt13_Rb_tree_nodeI9SituationEE10deallocateEPS3_m
FNDA:50029,_ZN9__gnu_cxx13new_allocatorISt13_Rb_tree_nodeI9SituationEE10deallocateEPS3_m
FN:132,_ZN9__gnu_cxx13new_allocatorI4RuleE10deallocateEPS1_m
FNDA:317,_ZN9__gnu_cxx13new_allocatorI4RuleE10deallocateEPS1_m
FN:132,_ZN9__gnu_cxx13new_allocatorISt3setI9SituationSt4lessIS2_ESaIS2_EEE10deallocateEPS6_m
FNDA:227,_ZN9__gnu_cxx13new_allocatorISt3setI9SituationSt4lessIS2_ESaIS2_EEE10deallocateEPS6_m
FN:166,_ZN9__gnu_cxx13new_allocatorISt13_Rb_tree_nodeI9SituationEE7destroyIS2_EEvPT_
FNDA:50029,_ZN9__gnu_cxx13new_allocatorISt13_Rb_tree_nodeI9SituationEE7destroyIS2_EEvPT_
FN:197,_ZNK9__gnu_cxx13new_allocatorI4RuleE11_M_max_sizeEv
FNDA:405,_ZNK9__gnu_cxx13new_allocatorI4RuleE11_M_max_sizeEv
DA:79,10
DA:79,20
DA:79,0
DA:82,526
DA:82,0
DA:89,45152
DA:89,10
DA:89,546
DA:89,890638
DA:89,0
DA:103,317
DA:111,317
DA:115,0
DA:116,0
DA:117,0
DA:127,317
DA:132,50029
DA:145,50029
DA:132,227
DA:145,227
DA:132,317
DA:145,317
DA:132,768283
DA:145,768283
DA:166,50029
DA:168,50029
DA:197,405
DA:200,405
end_of_record
SF:/usr/include/c++/11/bits/allocator.h
FN:156,_ZNSaISt3setI9SituationSt4lessIS0_ESaIS0_EEEC2Ev
FNDA:10,_ZNSaISt3setI9SituationSt4lessIS0_ESaIS0_EEEC2Ev
FN:156,_ZNSaI4RuleEC2Ev
FNDA:20,_ZNSaI4RuleEC2Ev
FN:159,_ZNSaI4RuleEC2ERKS0_
FNDA:526,_ZNSaI4RuleEC2ERKS0_
FN:174,_ZNSaISt13_Rb_tree_nodeI9SituationEED2Ev
FNDA:45152,_ZNSaISt13_Rb_tree_nodeI9SituationEED2Ev
FN:174,_ZNSaISt3setI9SituationSt4lessIS0_ESaIS0_EEED2Ev
FNDA:10,_ZNSaISt3setI9SituationSt4lessIS0_ESaIS0_EEED2Ev
FN:174,_ZNSaI4RuleED2Ev
FNDA:546,_ZNSaI4RuleED2Ev
FN:174,_ZNSaI6LetterED2Ev
FNDA:890638,_ZNSaI6LetterED2Ev
DA:156,10
DA:156,20
DA:159,526
DA:160,526
DA:174,45152
DA:174,10
DA:174,546
DA:174,890638
end_of_record
TN:
SF:/usr/include/c++/11/bits/stl_construct.h
FN:109,_ZSt10_ConstructI6LetterJRKS0_EEvPT_DpOT0_
FNDA:0,_ZSt10_ConstructI6LetterJRKS0_EEvPT_DpOT0_
FN:109,_ZSt10_ConstructI6LetterJRS0_EEvPT_DpOT0_
FNDA:0,_ZSt10_ConstructI6LetterJRS0_EEvPT_DpOT0_
FN:172,_ZNSt12_Destroy_auxILb1EE9__destroyIN9__gnu_cxx17__normal_iteratorIP6LetterSt6vectorIS4_SaIS4_EEEEEEvT_SA_
FNDA:0,_ZNSt12_Destroy_auxILb1EE9__destroyIN9__gnu_cxx17__normal_iteratorIP6LetterSt6vectorIS4_SaIS4_EEEEEEvT_SA_
FN:172,_ZNSt12_Destroy_auxILb1EE9__destroyIP6LetterEEvT_S4_
FNDA:0,_ZNSt12_Destroy_auxILb1EE9__destroyIP6LetterEEvT_S4_
FN:182,_ZSt8_DestroyIN9__gnu_cxx17__normal_iteratorIP6LetterSt6vectorIS2_SaIS2_EEEEEvT_S8_
FNDA:0,_ZSt8_DestroyIN9__gnu_cxx17__normal_iteratorIP6LetterSt6vectorIS2_SaIS2_EEEEEvT_S8_
FN:182,_ZSt8_DestroyIP6LetterEvT_S2_
FNDA:0,_ZSt8_DestroyIP6LetterEvT_S2_
DA:109,0
DA:119,0
DA:120,0
DA:109,0
DA:119,0
DA:120,0
DA:172,0
DA:172,0
DA:182,0
DA:196,0
DA:197,0
DA:182,0
DA:196,0
DA:197,0
end_of_record
SF:/usr/include/c++/11/bits/stl_uninitialized.h
FN:85,_ZNSt20__uninitialized_copyILb0EE13__uninit_copyIN9__gnu_cxx17__normal_iteratorIPK6LetterSt6vectorIS4_SaIS4_EEEEPS4_EET0_T_SD_SC_
FNDA:0,_ZNSt20__uninitialized_copyILb0EE13__uninit_copyIN9__gnu_cxx17__normal_iteratorIPK6LetterSt6vectorIS4_SaIS4_EEEEPS4_EET0_T_SD_SC_
FN:85,_ZNSt20__uninitialized_copyILb0EE13__uninit_copyIP6LetterS3_EET0_T_S5_S4_
FNDA:0,_ZNSt20__uninitialized_copyILb0EE13__uninit_copyIP6LetterS3_EET0_T_S5_S4_
FN:126,_ZSt18uninitialized_copyIN9__gnu_cxx17__normal_iteratorIPK6LetterSt6vectorIS2_SaIS2_EEEEPS2_ET0_T_SB_SA_
FNDA:0,_ZSt18uninitialized_copyIN9__gnu_cxx17__normal_iteratorIPK6LetterSt6vectorIS2_SaIS2_EEEEPS2_ET0_T_SB_SA_
FN:126,_ZSt18uninitialized_copyIP6LetterS1_ET0_T_S3_S2_
FNDA:0,_ZSt18uninitialized_copyIP6LetterS1_ET0_T_S3_S2_
FN:331,_ZSt22__uninitialized_copy_aIN9__gnu_cxx17__normal_iteratorIPK6LetterSt6vectorIS2_SaIS2_EEEEPS2_S2_ET0_T_SB_SA_RSaIT1_E
FNDA:0,_ZSt22__uninitialized_copy_aIN9__gnu_cxx17__normal_iteratorIPK6LetterSt6vectorIS2_SaIS2_EEEEPS2_S2_ET0_T_SB_SA_RSaIT1_E
FN:331,_ZSt22__uninitialized_copy_aIP6LetterS1_S0_ET0_T_S3_S2_RSaIT1_E
FNDA:0,_ZSt22__uninitialized_copy_aIP6LetterS1_S0_ET0_T_S3_S2_RSaIT1_E
DA:85,0
DA:88,0
DA:91,0
DA:92,0
DA:93,0
DA:95,0
DA:97,0
DA:98,0
DA:85,0
DA:88,0
DA:91,0
DA:92,0
DA:93,0
DA:95,0
DA:97,0
DA:98,0
DA:126,0
DA:145,0
DA:151,0
DA:126,0
DA:145,0
DA:151,0
DA:331,0
DA:333,0
DA:331,0
DA:333,0
end_of_record
SF:/usr/include/c++/11/bits/stl_vector.h
FN:97,_ZNSt12_Vector_baseI6LetterSaIS0_EE17_Vector_impl_dataC2Ev
FNDA:0,_ZNSt12_Vector_baseI6LetterSaIS0_EE17_Vector_impl_dataC2Ev
FN:131,_ZNSt12_Vector_baseI6LetterSaIS0_EE12_Vector_implC2Ev
FNDA:0,_ZNSt12_Vector_baseI6LetterSaIS0_EE12_Vector_implC2Ev
FN:276,_ZNSt12_Vector_baseI6LetterSaIS0_EE19_M_get_Tp_allocatorEv
FNDA:0,_ZNSt12_Vector_baseI6LetterSaIS0_EE19_M_get_Tp_allocatorEv
FN:280,_ZNKSt12_Vector_baseI6LetterSaIS0_EE19_M_get_Tp_allocatorEv
FNDA:0,_ZNKSt12_Vector_baseI6LetterSaIS0_EE19_M_get_Tp_allocatorEv
FN:288,_ZNSt12_Vector_baseI6LetterSaIS0_EEC2Ev
FNDA:0,_ZNSt12_Vector_baseI6LetterSaIS0_EEC2Ev
FN:333,_ZNSt12_Vector_baseI6LetterSaIS0_EED2Ev
FNDA:0,_ZNSt12_Vector_baseI6LetterSaIS0_EED2Ev
FN:343,_ZNSt12_Vector_baseI6LetterSaIS0_EE11_M_allocateEm
FNDA:0,_ZNSt12_Vector_baseI6LetterSaIS0_EE11_M_allocateEm
FN:350,_ZNSt12_Vector_baseI6LetterSaIS0_EE13_M_deallocateEPS0_m
FNDA:0,_ZNSt12_Vector_baseI6LetterSaIS0_EE13_M_deallocateEPS0_m
FN:487,_ZNSt6vectorI6LetterSaIS0_EEC2Ev
FNDA:0,_ZNSt6vectorI6LetterSaIS0_EEC2Ev
FN:678,_ZNSt6vectorI6LetterSaIS0_EED2Ev
FNDA:0,_ZNSt6vectorI6LetterSaIS0_EED2Ev
FN:811,_ZNSt6vectorI6LetterSaIS0_EE5beginEv
FNDA:0,_ZNSt6vectorI6LetterSaIS0_EE5beginEv
FN:820,_ZNKSt6vectorI6LetterSaIS0_EE5beginEv
FNDA:0,_ZNKSt6vectorI6LetterSaIS0_EE5beginEv
FN:829,_ZNSt6vectorI6LetterSaIS0_EE3endEv
FNDA:0,_ZNSt6vectorI6LetterSaIS0_EE3endEv
FN:838,_ZNKSt6vectorI6LetterSaIS0_EE3endEv
FNDA:0,_ZNKSt6vectorI6LetterSaIS0_EE3endEv
FN:918,_ZNKSt6vectorI6LetterSaIS0_EE4sizeEv
FNDA:0,_ZNKSt6vectorI6LetterSaIS0_EE4sizeEv
FN:998,_ZNKSt6vectorI6LetterSaIS0_EE8capacityEv
FNDA:0,_ZNKSt6vectorI6LetterSaIS0_EE8capacityEv
FN:1498,_ZNSt6vectorI6LetterSaIS0_EE5clearEv
FNDA:0,_ZNSt6vectorI6LetterSaIS0_EE5clearEv
FN:1508,_ZNSt6vectorI6LetterSaIS0_EE20_M_allocate_and_copyIN9__gnu_cxx17__normal_iteratorIPKS0_S2_EEEEPS0_mT_SA_
FNDA:0,_ZNSt6vectorI6LetterSaIS0_EE20_M_allocate_and_copyIN9__gnu_cxx17__normal_iteratorIPKS0_S2_EEEEPS0_mT_SA_
FN:1792,_ZNSt6vectorI6LetterSaIS0_EE15_M_erase_at_endEPS0_
FNDA:0,_ZNSt6vectorI6LetterSaIS0_EE15_M_erase_at_endEPS0_
DA:97,0
DA:98,0
DA:99,0
DA:131,0
DA:133,0
DA:134,0
DA:276,0
DA:277,0
DA:280,0
DA:281,0
DA:288,0
DA:333,0
DA:335,0
DA:336,0
DA:337,0
DA:343,0
DA:346,0
DA:350,0
DA:353,0
DA:354,0
DA:355,0
DA:487,0
DA:678,0
DA:680,0
DA:681,0
DA:683,0
DA:811,0
DA:812,0
DA:820,0
DA:821,0
DA:829,0
DA:830,0
DA:838,0
DA:839,0
DA:918,0
DA:919,0
DA:998,0
DA:999,0
DA:1000,0
DA:1498,0
DA:1499,0
DA:1508,0
DA:1511,0
DA:1514,0
DA:1515,0
DA:1516,0
DA:1518,0
DA:1520,0
DA:1521,0
DA:1792,0
DA:1794,0
DA:1796,0
DA:1797,0
DA:1798,0
DA:1801,0
end_of_record
SF:/usr/include/c++/11/bits/vector.tcc
FN:198,_ZNSt6vectorI6LetterSaIS0_EEaSERKS2_
FNDA:0,_ZNSt6vectorI6LetterSaIS0_EEaSERKS2_
DA:198,0
DA:201,0
DA:205,0
DA:207,0
DA:208,0
DA:211,0
DA:212,0
DA:213,0
DA:214,0
DA:215,0
DA:216,0
DA:217,0
DA:219,0
DA:220,0
DA:223,0
DA:224,0
DA:226,0
DA:228,0
DA:229,0
DA:230,0
DA:231,0
DA:232,0
DA:233,0
DA:234,0
DA:236,0
DA:238,0
DA:239,0
DA:243,0
DA:245,0
DA:246,0
DA:248,0
DA:250,0
DA:252,0
end_of_record
SF:/usr/include/c++/11/ext/alloc_traits.h
FN:103,_ZN9__gnu_cxx14__alloc_traitsISaI6LetterES1_E27_S_propagate_on_copy_assignEv
FNDA:0,_ZN9__gnu_cxx14__alloc_traitsISaI6LetterES1_E27_S_propagate_on_copy_assignEv
FN:112,_ZN9__gnu_cxx14__alloc_traitsISaI6LetterES1_E15_S_always_equalEv
FNDA:0,_ZN9__gnu_cxx14__alloc_traitsISaI6LetterES1_E15_S_always_equalEv
DA:103,0
DA:104,0
DA:112,0
DA:113,0
end_of_record
SF:/usr/include/c++/11/bits/move.h
FN:49,_ZSt11__addressofI6LetterEPT_RS1_
FNDA:0,_ZSt11__addressofI6LetterEPT_RS1_
FN:77,_ZSt7forwardIRK6LetterEOT_RNSt16remove_referenceIS3_E4typeE
FNDA:0,_ZSt7forwardIRK6LetterEOT_RNSt16remove_referenceIS3_E4typeE
FN:77,_ZSt7forwardIR6LetterEOT_RNSt16remove_referenceIS2_E4typeE
FNDA:0,_ZSt7forwardIR6LetterEOT_RNSt16remove_referenceIS2_E4typeE
FN:77,_ZSt7forwardIRKiEOT_RNSt16remove_referenceIS2_E4typeE
FNDA:1478592,_ZSt7forwardIRKiEOT_RNSt16remove_referenceIS2_E4typeE
FN:77,_ZSt7forwardIRK4RuleEOT_RNSt16remove_referenceIS3_E4typeE
FNDA:0,_ZSt7forwardIRK4RuleEOT_RNSt16remove_referenceIS3_E4typeE
DA:49,0
DA:50,0
DA:77,0
DA:78,0
DA:77,0
DA:78,0
DA:77,1478592
DA:78,1478592
DA:77,0
DA:78,0
end_of_record
SF:/usr/include/c++/11/bits/alloc_traits.h
FN:463,_ZNSt16allocator_traitsISaI6LetterEE8allocateERS1_m
FNDA:0,_ZNSt16allocator_traitsISaI6LetterEE8allocateERS1_m
FN:495,_ZNSt16allocator_traitsISaI6LetterEE10deallocateERS1_PS0_m
FNDA:0,_ZNSt16allocator_traitsISaI6LetterEE10deallocateERS1_PS0_m
FN:678,_ZSt15__alloc_on_copyISaI6LetterEEvRT_RKS2_
FNDA:0,_ZSt15__alloc_on_copyISaI6LetterEEvRT_RKS2_
FN:845,_ZSt8_DestroyIN9__gnu_cxx17__normal_iteratorIP6LetterSt6vectorIS2_SaIS2_EEEES2_EvT_S8_RSaIT0_E
FNDA:0,_ZSt8_DestroyIN9__gnu_cxx17__normal_iteratorIP6LetterSt6vectorIS2_SaIS2_EEEES2_EvT_S8_RSaIT0_E
FN:845,_ZSt8_DestroyIP6LetterS0_EvT_S2_RSaIT0_E
FNDA:0,_ZSt8_DestroyIP6LetterS0_EvT_S2_RSaIT0_E
DA:463,0
DA:464,0
DA:495,0
DA:496,0
DA:678,0
DA:688,0
DA:845,0
DA:848,0
DA:849,0
DA:845,0
DA:848,0
DA:849,0
end_of_record
SF:/usr/include/c++/11/ext/new_allocator.h
FN:79,_ZN9__gnu_cxx13new_allocatorI6LetterEC2Ev
FNDA:0,_ZN9__gnu_cxx13new_allocatorI6LetterEC2Ev
FN:89,_ZN9__gnu_cxx13new_allocatorI6LetterED2Ev
FNDA:0,_ZN9__gnu_cxx13new_allocatorI6LetterED2Ev
FN:103,_ZN9__gnu_cxx13new_allocatorI6LetterE8allocateEmPKv
FNDA:0,_ZN9__gnu_cxx13new_allocatorI6LetterE8allocateEmPKv
FN:132,_ZN9__gnu_cxx13new_allocatorI6LetterE10deallocateEPS1_m
FNDA:0,_ZN9__gnu_cxx13new_allocatorI6LetterE10deallocateEPS1_m
FN:197,_ZNK9__gnu_cxx13new_allocatorI6LetterE11_M_max_sizeEv
FNDA:0,_ZNK9__gnu_cxx13new_allocatorI6LetterE11_M_max_sizeEv
DA:79,0
DA:89,0
DA:103,0
DA:111,0
DA:115,0
DA:116,0
DA:117,0
DA:127,0
DA:132,0
DA:145,0
DA:197,0
DA:200,0
end_of_record
SF:/usr/include/c++/11/bits/allocator.h
FN:156,_ZNSaI6LetterEC2Ev
FNDA:0,_ZNSaI6LetterEC2Ev
FN:174,_ZNSaI6LetterED2Ev
FNDA:0,_ZNSaI6LetterED2Ev
FN:209,_ZStneRKSaI6LetterES2_
FNDA:0,_ZStneRKSaI6LetterES2_
DA:156,0
DA:174,0
DA:209,0
DA:210,0
end_of_record
SF:/home/sofia/form/hpp/Grammar.hpp
FN:11,_ZN4RuleC2Ev
FNDA:68406,_ZN4RuleC2Ev
DA:11,68406
end_of_record
SF:/usr/include/c++/11/new
FN:174,_ZnwmPv
FNDA:0,_ZnwmPv
FN:180,_ZdlPvS_
FNDA:0,_ZdlPvS_
DA:174,0
DA:175,0
DA:180,0
end_of_record
SF:/usr/include/c++/11/tuple
FN:192,_ZNSt10_Head_baseILm2EiLb0EEC2ERKi
FNDA:739296,_ZNSt10_Head_baseILm2EiLb0EEC2ERKi
FN:192,_ZNSt10_Head_baseILm0E4RuleLb0EEC2ERKS0_
FNDA:739296,_ZNSt10_Head_baseILm0E4RuleLb0EEC2ERKS0_
FN:192,_ZNSt10_Head_baseILm1EiLb0EEC2ERKi
FNDA:739296,_ZNSt10_Head_baseILm1EiLb0EEC2ERKi
FN:236,_ZNSt10_Head_baseILm1EiLb0EE7_M_headERKS0_
FNDA:719388,_ZNSt10_Head_baseILm1EiLb0EE7_M_headERKS0_
FN:236,_ZNSt10_Head_baseILm0E4RuleLb0EE7_M_headERKS1_
FNDA:1152700,_ZNSt10_Head_baseILm0E4RuleLb0EE7_M_headERKS1_
FN:236,_ZNSt10_Head_baseILm2EiLb0EE7_M_headERKS0_
FNDA:509258,_ZNSt10_Head_baseILm2EiLb0EE7_M_headERKS0_
FN:271,_ZNSt11_Tuple_implILm1EJiiEE7_M_headERKS0_
FNDA:719388,_ZNSt11_Tuple_implILm1EJiiEE7_M_headERKS0_
FN:271,_ZNSt11_Tuple_implILm0EJ4RuleiiEE7_M_headERKS1_
FNDA:1152700,_ZNSt11_Tuple_implILm0EJ4RuleiiEE7_M_headERKS1_
FN:283,_ZNSt11_Tuple_implILm1EJiiEEC2ERKiS2_
FNDA:739296,_ZNSt11_Tuple_implILm1EJiiEEC2ERKiS2_
FN:283,_ZNSt11_Tuple_implILm0EJ4RuleiiEEC2ERKS0_RKiS5_
FNDA:739296,_ZNSt11_Tuple_implILm0EJ4RuleiiEEC2ERKS0_RKiS5_
FN:427,_ZNSt11_Tuple_implILm2EJiEE7_M_headERKS0_
FNDA:509258,_ZNSt11_Tuple_implILm2EJiEE7_M_headERKS0_
FN:434,_ZNSt11_Tuple_implILm2EJiEEC2ERKi
FNDA:739296,_ZNSt11_Tuple_implILm2EJiEEC2ERKi
FN:731,_ZNSt5tupleIJ4RuleiiEEC2ILb1ELb1EEERKS0_RKiS6_
FNDA:739296,_ZNSt5tupleIJ4RuleiiEEC2ILb1ELb1EEERKS0_RKiS6_
FN:1386,_ZSt12__get_helperILm2EiJEERKT0_RKSt11_Tuple_implIXT_EJS0_DpT1_EE
FNDA:509258,_ZSt12__get_helperILm2EiJEERKT0_RKSt11_Tuple_implIXT_EJS0_DpT1_EE
FN:1386,_ZSt12__get_helperILm1EiJiEERKT0_RKSt11_Tuple_implIXT_EJS0_DpT1_EE
FNDA:719388,_ZSt12__get_helperILm1EiJiEERKT0_RKSt11_Tuple_implIXT_EJS0_DpT1_EE
FN:1386,_ZSt12__get_helperILm0E4RuleJiiEERKT0_RKSt11_Tuple_implIXT_EJS1_DpT1_EE
FNDA:1152700,_ZSt12__get_helperILm0E4RuleJiiEERKT0_RKSt11_Tuple_implIXT_EJS1_DpT1_EE
FN:1403,_ZSt3getILm2EJ4RuleiiEERKNSt13tuple_elementIXT_ESt5tupleIJDpT0_EEE4typeERKS5_
FNDA:509258,_ZSt3getILm2EJ4RuleiiEERKNSt13tuple_elementIXT_ESt5tupleIJDpT0_EEE4typeERKS5_
FN:1403,_ZSt3getILm0EJ4RuleiiEERKNSt13tuple_elementIXT_ESt5tupleIJDpT0_EEE4typeERKS5_
FNDA:1152700,_ZSt3getILm0EJ4RuleiiEERKNSt13tuple_elementIXT_ESt5tupleIJDpT0_EEE4typeERKS5_
FN:1403,_ZSt3getILm1EJ4RuleiiEERKNSt13tuple_elementIXT_ESt5tupleIJDpT0_EEE4typeERKS5_
FNDA:719388,_ZSt3getILm1EJ4RuleiiEERKNSt13tuple_elementIXT_ESt5tupleIJDpT0_EEE4typeERKS5_
FN:1508,_ZNSt15__tuple_compareISt5tupleIJ4RuleiiEES2_Lm1ELm3EE6__lessERKS2_S5_
FNDA:188169,_ZNSt15__tuple_compareISt5tupleIJ4RuleiiEES2_Lm1ELm3EE6__lessERKS2_S5_
FN:1508,_ZNSt15__tuple_compareISt5tupleIJ4RuleiiEES2_Lm2ELm3EE6__lessERKS2_S5_
FNDA:138908,_ZNSt15__tuple_compareISt5tupleIJ4RuleiiEES2_Lm2ELm3EE6__lessERKS2_S5_
FN:1508,_ZNSt15__tuple_compareISt5tupleIJ4RuleiiEES2_Lm0ELm3EE6__lessERKS2_S5_
FNDA:369648,_ZNSt15__tuple_compareISt5tupleIJ4RuleiiEES2_Lm0ELm3EE6__lessERKS2_S5_
FN:1523,_ZNSt15__tuple_compareISt5tupleIJ4RuleiiEES2_Lm3ELm3EE6__lessERKS2_S5_
FNDA:108330,_ZNSt15__tuple_compareISt5tupleIJ4RuleiiEES2_Lm3ELm3EE6__lessERKS2_S5_
FN:1570,_ZStltIJ4RuleiiEJS0_iiEEbRKSt5tupleIJDpT_EERKS1_IJDpT0_EE
FNDA:369648,_ZStltIJ4RuleiiEJS0_iiEEbRKSt5tupleIJDpT_EERKS1_IJDpT0_EE
FN:1609,_ZSt10make_tupleIJRK4RuleRKiS4_EESt5tupleIJDpNSt25__strip_reference_wrapperINSt5decayIT_E4typeEE6__typeEEEDpOS8_
FNDA:739296,_ZSt10make_tupleIJRK4RuleRKiS4_EESt5tupleIJDpNSt25__strip_reference_wrapperINSt5decayIT_E4typeEE6__typeEEEDpOS8_
DA:192,739296
DA:193,739296
DA:192,739296
DA:193,739296
DA:192,739296
DA:193,739296
DA:236,509258
DA:236,719388
DA:236,1152700
DA:271,719388
DA:271,1152700
DA:283,739296
DA:284,739296
DA:285,739296
DA:283,739296
DA:284,739296
DA:285,739296
DA:427,509258
DA:434,739296
DA:435,739296
DA:436,739296
DA:731,739296
DA:733,739296
DA:1386,509258
DA:1387,509258
DA:1386,719388
DA:1387,719388
DA:1386,1152700
DA:1387,1152700
DA:1403,509258
DA:1404,509258
DA:1403,719388
DA:1404,719388
DA:1403,1152700
DA:1404,1152700
DA:1508,138908
DA:1510,138908
DA:1511,247238
DA:1512,247238
DA:1508,188169
DA:1510,188169
DA:1511,327077
DA:1512,327077
DA:1508,369648
DA:1510,369648
DA:1511,557817
DA:1512,557817
DA:1523,108330
DA:1570,369648
DA:1578,369648
DA:1609,739296
DA:1613,739296
end_of_record
SF:/home/sofia/form/cpp/Situation.cpp
FN:4,_ZN9SituationC2ERK4Ruleii
FNDA:62903,_ZN9SituationC2ERK4Ruleii
FN:10,_ZN9SituationC2ERKS_
FNDA:5503,_ZN9SituationC2ERKS_
FN:16,_ZNK9Situation15IndexIsTerminalEv
FNDA:29359,_ZNK9Situation15IndexIsTerminalEv
FN:24,_ZNK9Situation5IsEndEv
FNDA:71749,_ZNK9Situation5IsEndEv
FN:31,_ZNK9Situation10NextLetterEv
FNDA:117438,_ZNK9Situation10NextLetterEv
FN:35,_ZNK9Situation7GetRuleEv
FNDA:80894,_ZNK9Situation7GetRuleEv
FN:39,_ZNK9Situation8GetIndexEv
FNDA:41315,_ZNK9Situation8GetIndexEv
FN:43,_ZNK9Situation14GetParentIndexEv
FNDA:70775,_ZNK9Situation14GetParentIndexEv
FN:47,_ZNK9SituationltERKS_
FNDA:369648,_ZNK9SituationltERKS_
DA:4,62903
DA:5,62903
DA:6,62903
DA:7,62903
DA:8,62903
DA:10,5503
DA:11,5503
DA:12,5503
DA:13,5503
DA:14,5503
DA:16,29359
DA:17,29359
DA:18,1108
DA:21,28251
DA:24,71749
DA:25,71749
DA:26,10085
DA:28,61664
DA:31,117438
DA:32,117438
DA:35,80894
DA:36,80894
DA:39,41315
DA:40,41315
DA:43,70775
DA:44,70775
DA:47,369648
DA:48,739296
DA:49,1108944
end_of_record
SF:/home/sofia/form/hpp/Letter.hpp
FN:9,_ZN6LetterC2Ev
FNDA:0,_ZN6LetterC2Ev
DA:9,0
end_of_record
SF:/usr/include/c++/11/bits/stl_algobase.h
FN:313,_ZSt12__niter_baseIP6LetterET_S2_
FNDA:0,_ZSt12__niter_baseIP6LetterET_S2_
FN:328,_ZSt12__niter_wrapIN9__gnu_cxx17__normal_iteratorIP6LetterSt6vectorIS2_SaIS2_EEEES3_ET_S8_T0_
FNDA:0,_ZSt12__niter_wrapIN9__gnu_cxx17__normal_iteratorIP6LetterSt6vectorIS2_SaIS2_EEEES3_ET_S8_T0_
FN:335,_ZSt12__niter_wrapIP6LetterET_RKS2_S2_
FNDA:0,_ZSt12__niter_wrapIP6LetterET_RKS2_S2_
FN:380,_ZNSt11__copy_moveILb0ELb0ESt26random_access_iterator_tagE8__copy_mIP6LetterS4_EET0_T_S6_S5_
FNDA:0,_ZNSt11__copy_moveILb0ELb0ESt26random_access_iterator_tagE8__copy_mIP6LetterS4_EET0_T_S6_S5_
FN:380,_ZNSt11__copy_moveILb0ELb0ESt26random_access_iterator_tagE8__copy_mIPK6LetterPS3_EET0_T_S8_S7_
FNDA:0,_ZNSt11__copy_moveILb0ELb0ESt26random_access_iterator_tagE8__copy_mIPK6LetterPS3_EET0_T_S8_S7_
FN:486,_ZSt14__copy_move_a2ILb0EP6LetterS1_ET1_T0_S3_S2_
FNDA:0,_ZSt14__copy_move_a2ILb0EP6LetterS1_ET1_T0_S3_S2_
FN:486,_ZSt14__copy_move_a2ILb0EPK6LetterPS0_ET1_T0_S5_S4_
FNDA:0,_ZSt14__copy_move_a2ILb0EPK6LetterPS0_ET1_T0_S5_S4_
FN:521,_ZSt14__copy_move_a1ILb0EP6LetterS1_ET1_T0_S3_S2_
FNDA:0,_ZSt14__copy_move_a1ILb0EP6LetterS1_ET1_T0_S3_S2_
FN:521,_ZSt14__copy_move_a1ILb0EPK6LetterPS0_ET1_T0_S5_S4_
FNDA:0,_ZSt14__copy_move_a1ILb0EPK6LetterPS0_ET1_T0_S5_S4_
FN:527,_ZSt13__copy_move_aILb0EP6LetterS1_ET1_T0_S3_S2_
FNDA:0,_ZSt13__copy_move_aILb0EP6LetterS1_ET1_T0_S3_S2_
FN:527,_ZSt13__copy_move_aILb0EN9__gnu_cxx17__normal_iteratorIPK6LetterSt6vectorIS2_SaIS2_EEEENS1_IPS2_S7_EEET1_T0_SC_SB_
FNDA:0,_ZSt13__copy_move_aILb0EN9__gnu_cxx17__normal_iteratorIPK6LetterSt6vectorIS2_SaIS2_EEEENS1_IPS2_S7_EEET1_T0_SC_SB_
FN:611,_ZSt4copyIP6LetterS1_ET0_T_S3_S2_
FNDA:0,_ZSt4copyIP6LetterS1_ET0_T_S3_S2_
FN:611,_ZSt4copyIN9__gnu_cxx17__normal_iteratorIPK6LetterSt6vectorIS2_SaIS2_EEEENS1_IPS2_S7_EEET0_T_SC_SB_
FNDA:0,_ZSt4copyIN9__gnu_cxx17__normal_iteratorIPK6LetterSt6vectorIS2_SaIS2_EEEENS1_IPS2_S7_EEET0_T_SC_SB_
DA:313,0
DA:315,0
DA:328,0
DA:329,0
DA:335,0
DA:336,0
DA:380,0
DA:383,0
DA:385,0
DA:386,0
DA:387,0
DA:389,0
DA:380,0
DA:383,0
DA:385,0
DA:386,0
DA:387,0
DA:389,0
DA:486,0
DA:495,0
DA:486,0
DA:495,0
DA:521,0
DA:522,0
DA:521,0
DA:522,0
DA:527,0
DA:529,0
DA:532,0
DA:527,0
DA:529,0
DA:532,0
DA:611,0
DA:620,0
DA:611,0
DA:620,0
end_of_record
SF:/usr/include/c++/11/bits/cpp_type_traits.h
FN:560,_ZSt12__miter_baseIP6LetterET_S2_
FNDA:0,_ZSt12__miter_baseIP6LetterET_S2_
FN:560,_ZSt12__miter_baseIN9__gnu_cxx17__normal_iteratorIPK6LetterSt6vectorIS2_SaIS2_EEEEET_S9_
FNDA:0,_ZSt12__miter_baseIN9__gnu_cxx17__normal_iteratorIPK6LetterSt6vectorIS2_SaIS2_EEEEET_S9_
DA:560,0
DA:561,0
DA:560,0
DA:561,0
end_of_record
SF:/usr/include/c++/11/bits/stl_iterator.h
FN:1010,_ZN9__gnu_cxx17__normal_iteratorIP6LetterSt6vectorIS1_SaIS1_EEEC2ERKS2_
FNDA:0,_ZN9__gnu_cxx17__normal_iteratorIP6LetterSt6vectorIS1_SaIS1_EEEC2ERKS2_
FN:1010,_ZN9__gnu_cxx17__normal_iteratorIPK6LetterSt6vectorIS1_SaIS1_EEEC2ERKS3_
FNDA:0,_ZN9__gnu_cxx17__normal_iteratorIPK6LetterSt6vectorIS1_SaIS1_EEEC2ERKS3_
FN:1025,_ZNK9__gnu_cxx17__normal_iteratorIPK6LetterSt6vectorIS1_SaIS1_EEEdeEv
FNDA:0,_ZNK9__gnu_cxx17__normal_iteratorIPK6LetterSt6vectorIS1_SaIS1_EEEdeEv
FN:1035,_ZN9__gnu_cxx17__normal_iteratorIPK6LetterSt6vectorIS1_SaIS1_EEEppEv
FNDA:0,_ZN9__gnu_cxx17__normal_iteratorIPK6LetterSt6vectorIS1_SaIS1_EEEppEv
FN:1073,_ZNK9__gnu_cxx17__normal_iteratorIP6LetterSt6vectorIS1_SaIS1_EEEplEl
FNDA:0,_ZNK9__gnu_cxx17__normal_iteratorIP6LetterSt6vectorIS1_SaIS1_EEEplEl
FN:1088,_ZNK9__gnu_cxx17__normal_iteratorIP6LetterSt6vectorIS1_SaIS1_EEE4baseEv
FNDA:0,_ZNK9__gnu_cxx17__normal_iteratorIP6LetterSt6vectorIS1_SaIS1_EEE4baseEv
FN:1088,_ZNK9__gnu_cxx17__normal_iteratorIPK6LetterSt6vectorIS1_SaIS1_EEE4baseEv
FNDA:0,_ZNK9__gnu_cxx17__normal_iteratorIPK6LetterSt6vectorIS1_SaIS1_EEE4baseEv
FN:1145,_ZN9__gnu_cxxneIPK6LetterSt6vectorIS1_SaIS1_EEEEbRKNS_17__normal_iteratorIT_T0_EESC_
FNDA:0,_ZN9__gnu_cxxneIPK6LetterSt6vectorIS1_SaIS1_EEEEbRKNS_17__normal_iteratorIT_T0_EESC_
FN:1257,_ZSt12__niter_baseIP6LetterSt6vectorIS0_SaIS0_EEET_N9__gnu_cxx17__normal_iteratorIS5_T0_EE
FNDA:0,_ZSt12__niter_baseIP6LetterSt6vectorIS0_SaIS0_EEET_N9__gnu_cxx17__normal_iteratorIS5_T0_EE
FN:1257,_ZSt12__niter_baseIPK6LetterSt6vectorIS0_SaIS0_EEET_N9__gnu_cxx17__normal_iteratorIS6_T0_EE
FNDA:0,_ZSt12__niter_baseIPK6LetterSt6vectorIS0_SaIS0_EEET_N9__gnu_cxx17__normal_iteratorIS6_T0_EE
DA:1010,0
DA:1011,0
DA:1010,0
DA:1011,0
DA:1025,0
DA:1026,0
DA:1035,0
DA:1037,0
DA:1038,0
DA:1073,0
DA:1074,0
DA:1088,0
DA:1089,0
DA:1088,0
DA:1089,0
DA:1145,0
DA:1148,0
DA:1257,0
DA:1259,0
DA:1257,0
DA:1259,0
end_of_record
TN:
SF:/home/sofia/form/cpp/Letter.cpp
FN:3,_ZN6LetterC2Ec
FNDA:644,_ZN6LetterC2Ec
FN:9,_ZN6LetterC2ERKS_
FNDA:479908,_ZN6LetterC2ERKS_
FN:14,_ZNK6Letter13GetIsTerminalEv
FNDA:28251,_ZNK6Letter13GetIsTerminalEv
FN:18,_ZNK6Letter9GetLetterEv
FNDA:7416042,_ZNK6Letter9GetLetterEv
FN:22,_ZN6Letter9SetLetterEc
FNDA:571,_ZN6Letter9SetLetterEc
DA:3,644
DA:4,644
DA:6,644
DA:7,644
DA:9,479908
DA:10,479908
DA:11,479908
DA:12,479908
DA:14,28251
DA:15,28251
DA:18,7416042
DA:19,7416042
DA:22,571
DA:23,571
DA:24,571
DA:25,571
end_of_record
TN:
SF:/usr/include/c++/11/bits/vector.tcc
FN:198,_ZNSt6vectorI6LetterSaIS0_EEaSERKS2_
FNDA:69388,_ZNSt6vectorI6LetterSaIS0_EEaSERKS2_
FN:198,_ZNSt6vectorI4RuleSaIS0_EEaSERKS2_
FNDA:263,_ZNSt6vectorI4RuleSaIS0_EEaSERKS2_
FN:611,_ZNSt6vectorISt3setI9SituationSt4lessIS1_ESaIS1_EESaIS5_EE17_M_default_appendEm
FNDA:263,_ZNSt6vectorISt3setI9SituationSt4lessIS1_ESaIS1_EESaIS5_EE17_M_default_appendEm
DA:198,69388
DA:201,69388
DA:205,69388
DA:207,0
DA:208,0
DA:211,0
DA:212,0
DA:213,0
DA:214,0
DA:215,0
DA:216,0
DA:217,0
DA:219,0
DA:220,0
DA:223,69388
DA:224,69388
DA:226,58616
DA:228,58616
DA:229,58616
DA:230,58616
DA:231,58616
DA:232,58616
DA:233,58616
DA:234,58616
DA:236,10772
DA:238,10772
DA:239,10772
DA:243,0
DA:245,0
DA:246,0
DA:248,0
DA:250,69388
DA:252,69388
DA:198,263
DA:201,263
DA:205,263
DA:207,0
DA:208,0
DA:211,0
DA:212,0
DA:213,0
DA:214,0
DA:215,0
DA:216,0
DA:217,0
DA:219,0
DA:220,0
DA:223,263
DA:224,263
DA:226,10
DA:228,10
DA:229,10
DA:230,10
DA:231,10
DA:232,10
DA:233,10
DA:234,10
DA:236,253
DA:238,253
DA:239,253
DA:243,0
DA:245,0
DA:246,0
DA:248,0
DA:250,263
DA:252,263
DA:611,263
DA:614,263
DA:616,263
DA:617,263
DA:618,263
DA:620,263
DA:621,0
DA:623,263
DA:626,36
DA:627,36
DA:628,36
DA:634,227
DA:635,227
DA:640,227
DA:641,227
DA:643,0
DA:645,0
DA:646,0
DA:648,227
DA:649,227
DA:675,227
DA:676,227
DA:677,227
DA:678,227
DA:679,227
DA:680,227
DA:683,263
end_of_record
SF:/usr/include/c++/11/bits/move.h
FN:49,_ZSt11__addressofI6LetterEPT_RS1_
FNDA:0,_ZSt11__addressofI6LetterEPT_RS1_
FN:49,_ZSt11__addressofISt3setI9SituationSt4lessIS1_ESaIS1_EEEPT_RS6_
FNDA:0,_ZSt11__addressofISt3setI9SituationSt4lessIS1_ESaIS1_EEEPT_RS6_
FN:49,_ZSt11__addressofI4RuleEPT_RS1_
FNDA:0,_ZSt11__addressofI4RuleEPT_RS1_
FN:77,_ZSt7forwardIR6LetterEOT_RNSt16remove_referenceIS2_E4typeE
FNDA:0,_ZSt7forwardIR6LetterEOT_RNSt16remove_referenceIS2_E4typeE
FN:77,_ZSt7forwardIR4RuleEOT_RNSt16remove_referenceIS2_E4typeE
FNDA:267156,_ZSt7forwardIR4RuleEOT_RNSt16remove_referenceIS2_E4typeE
FN:77,_ZSt7forwardIRiEOT_RNSt16remove_referenceIS1_E4typeE
FNDA:267156,_ZSt7forwardIRiEOT_RNSt16remove_referenceIS1_E4typeE
FN:77,_ZSt7forwardIiEOT_RNSt16remove_referenceIS0_E4typeE
FNDA:267211,_ZSt7forwardIiEOT_RNSt16remove_referenceIS0_E4typeE
FN:77,_ZSt7forwardIRK9SituationEOT_RNSt16remove_referenceIS3_E4typeE
FNDA:1841,_ZSt7forwardIRK9SituationEOT_RNSt16remove_referenceIS3_E4typeE
FN:77,_ZSt7forwardIRSt17_Rb_tree_iteratorI9SituationEEOT_RNSt16remove_referenceIS4_E4typeE
FNDA:18114,_ZSt7forwardIRSt17_Rb_tree_iteratorI9SituationEEOT_RNSt16remove_referenceIS4_E4typeE
FN:77,_ZSt7forwardIRbEOT_RNSt16remove_referenceIS1_E4typeE
FNDA:18114,_ZSt7forwardIRbEOT_RNSt16remove_referenceIS1_E4typeE
FN:77,_ZSt7forwardI9SituationEOT_RNSt16remove_referenceIS1_E4typeE
FNDA:36680,_ZSt7forwardI9SituationEOT_RNSt16remove_referenceIS1_E4typeE
FN:77,_ZSt7forwardISt17_Rb_tree_iteratorI9SituationEEOT_RNSt16remove_referenceIS3_E4typeE
FNDA:107166,_ZSt7forwardISt17_Rb_tree_iteratorI9SituationEEOT_RNSt16remove_referenceIS3_E4typeE
FN:77,_ZSt7forwardIbEOT_RNSt16remove_referenceIS0_E4typeE
FNDA:107166,_ZSt7forwardIbEOT_RNSt16remove_referenceIS0_E4typeE
FN:77,_ZSt7forwardIRPSt13_Rb_tree_nodeI9SituationEEOT_RNSt16remove_referenceIS5_E4typeE
FNDA:8508,_ZSt7forwardIRPSt13_Rb_tree_nodeI9SituationEEOT_RNSt16remove_referenceIS5_E4typeE
FN:77,_ZSt7forwardIRPSt18_Rb_tree_node_baseEOT_RNSt16remove_referenceIS3_E4typeE
FNDA:62640,_ZSt7forwardIRPSt18_Rb_tree_node_baseEOT_RNSt16remove_referenceIS3_E4typeE
FN:77,_ZSt7forwardIRK4RuleEOT_RNSt16remove_referenceIS3_E4typeE
FNDA:0,_ZSt7forwardIRK4RuleEOT_RNSt16remove_referenceIS3_E4typeE
FN:77,_ZSt7forwardISt3setI9SituationSt4lessIS1_ESaIS1_EEEOT_RNSt16remove_referenceIS6_E4typeE
FNDA:0,_ZSt7forwardISt3setI9SituationSt4lessIS1_ESaIS1_EEEOT_RNSt16remove_referenceIS6_E4typeE
FN:77,_ZSt7forwardIRK6LetterEOT_RNSt16remove_referenceIS3_E4typeE
FNDA:0,_ZSt7forwardIRK6LetterEOT_RNSt16remove_referenceIS3_E4typeE
FN:104,_ZSt4moveIRSt3setI9SituationSt4lessIS1_ESaIS1_EEEONSt16remove_referenceIT_E4typeEOS8_
FNDA:0,_ZSt4moveIRSt3setI9SituationSt4lessIS1_ESaIS1_EEEONSt16remove_referenceIT_E4typeEOS8_
FN:104,_ZSt4moveIR9SituationEONSt16remove_referenceIT_E4typeEOS3_
FNDA:17851,_ZSt4moveIR9SituationEONSt16remove_referenceIT_E4typeEOS3_
DA:49,0
DA:50,0
DA:49,0
DA:50,0
DA:49,0
DA:50,0
DA:77,0
DA:78,0
DA:77,0
DA:78,0
DA:77,0
DA:78,0
DA:77,0
DA:78,0
DA:77,62640
DA:78,62640
DA:77,8508
DA:78,8508
DA:77,107166
DA:78,107166
DA:77,107166
DA:78,107166
DA:77,36680
DA:78,36680
DA:77,18114
DA:78,18114
DA:77,18114
DA:78,18114
DA:77,1841
DA:78,1841
DA:77,267211
DA:78,267211
DA:77,267156
DA:78,267156
DA:77,267156
DA:78,267156
DA:104,0
DA:105,0
DA:104,17851
DA:105,17851
end_of_record
SF:/usr/include/c++/11/ext/alloc_traits.h
FN:103,_ZN9__gnu_cxx14__alloc_traitsISaI6LetterES1_E27_S_propagate_on_copy_assignEv
FNDA:69388,_ZN9__gnu_cxx14__alloc_traitsISaI6LetterES1_E27_S_propagate_on_copy_assignEv
FN:103,_ZN9__gnu_cxx14__alloc_traitsISaI4RuleES1_E27_S_propagate_on_copy_assignEv
FNDA:263,_ZN9__gnu_cxx14__alloc_traitsISaI4RuleES1_E27_S_propagate_on_copy_assignEv
FN:112,_ZN9__gnu_cxx14__alloc_traitsISaI6LetterES1_E15_S_always_equalEv
FNDA:0,_ZN9__gnu_cxx14__alloc_traitsISaI6LetterES1_E15_S_always_equalEv
FN:112,_ZN9__gnu_cxx14__alloc_traitsISaI4RuleES1_E15_S_always_equalEv
FNDA:0,_ZN9__gnu_cxx14__alloc_traitsISaI4RuleES1_E15_S_always_equalEv
DA:103,69388
DA:104,69388
DA:103,263
DA:104,263
DA:112,0
DA:113,0
DA:112,0
DA:113,0
end_of_record
SF:/usr/include/c++/11/bits/basic_string.tcc
FN:206,_ZNSt7__cxx1112basic_stringIcSt11char_traitsIcESaIcEE12_M_constructIPKcEEvT_S8_St20forward_iterator_tag
FNDA:0,_ZNSt7__cxx1112basic_stringIcSt11char_traitsIcESaIcEE12_M_constructIPKcEEvT_S8_St20forward_iterator_tag
DA:206,0
DA:211,0
DA:212,0
DA:215,0
DA:217,0
DA:219,0
DA:220,0
DA:225,0
DA:226,0
DA:228,0
DA:229,0
DA:232,0
DA:233,0
end_of_record
SF:/usr/include/c++/11/bits/alloc_traits.h
FN:463,_ZNSt16allocator_traitsISaISt13_Rb_tree_nodeI9SituationEEE8allocateERS3_m
FNDA:50029,_ZNSt16allocator_traitsISaISt13_Rb_tree_nodeI9SituationEEE8allocateERS3_m
FN:463,_ZNSt16allocator_traitsISaI6LetterEE8allocateERS1_m
FNDA:0,_ZNSt16allocator_traitsISaI6LetterEE8allocateERS1_m
FN:463,_ZNSt16allocator_traitsISaISt3setI9SituationSt4lessIS1_ESaIS1_EEEE8allocateERS6_m
FNDA:227,_ZNSt16allocator_traitsISaISt3setI9SituationSt4lessIS1_ESaIS1_EEEE8allocateERS6_m
FN:463,_ZNSt16allocator_traitsISaI4RuleEE8allocateERS1_m
FNDA:0,_ZNSt16allocator_traitsISaI4RuleEE8allocateERS1_m
FN:495,_ZNSt16allocator_traitsISaI6LetterEE10deallocateERS1_PS0_m
FNDA:0,_ZNSt16allocator_traitsISaI6LetterEE10deallocateERS1_PS0_m
FN:495,_ZNSt16allocator_traitsISaI4RuleEE10deallocateERS1_PS0_m
FNDA:0,_ZNSt16allocator_traitsISaI4RuleEE10deallocateERS1_PS0_m
FN:495,_ZNSt16allocator_traitsISaISt13_Rb_tree_nodeI9SituationEEE10deallocateERS3_PS2_m
FNDA:0,_ZNSt16allocator_traitsISaISt13_Rb_tree_nodeI9SituationEEE10deallocateERS3_PS2_m
FN:495,_ZNSt16allocator_traitsISaISt3setI9SituationSt4lessIS1_ESaIS1_EEEE10deallocateERS6_PS5_m
FNDA:0,_ZNSt16allocator_traitsISaISt3setI9SituationSt4lessIS1_ESaIS1_EEEE10deallocateERS6_PS5_m
FN:511,_ZNSt16allocator_traitsISaISt3setI9SituationSt4lessIS1_ESaIS1_EEEE9constructIS5_JS5_EEEvRS6_PT_DpOT0_
FNDA:0,_ZNSt16allocator_traitsISaISt3setI9SituationSt4lessIS1_ESaIS1_EEEE9constructIS5_JS5_EEEvRS6_PT_DpOT0_
FN:511,_ZNSt16allocator_traitsISaISt13_Rb_tree_nodeI9SituationEEE9constructIS1_JS1_EEEvRS3_PT_DpOT0_
FNDA:5240,_ZNSt16allocator_traitsISaISt13_Rb_tree_nodeI9SituationEEE9constructIS1_JS1_EEEvRS3_PT_DpOT0_
FN:511,_ZNSt16allocator_traitsISaISt13_Rb_tree_nodeI9SituationEEE9constructIS1_JRKS1_EEEvRS3_PT_DpOT0_
FNDA:263,_ZNSt16allocator_traitsISaISt13_Rb_tree_nodeI9SituationEEE9constructIS1_JRKS1_EEEvRS3_PT_DpOT0_
FN:511,_ZNSt16allocator_traitsISaISt13_Rb_tree_nodeI9SituationEEE9constructIS1_JR4RuleRiiEEEvRS3_PT_DpOT0_
FNDA:44526,_ZNSt16allocator_traitsISaISt13_Rb_tree_nodeI9SituationEEE9constructIS1_JR4RuleRiiEEEvRS3_PT_DpOT0_
FN:531,_ZNSt16allocator_traitsISaISt3setI9SituationSt4lessIS1_ESaIS1_EEEE7destroyIS5_EEvRS6_PT_
FNDA:0,_ZNSt16allocator_traitsISaISt3setI9SituationSt4lessIS1_ESaIS1_EEEE7destroyIS5_EEvRS6_PT_
FN:531,_ZNSt16allocator_traitsISaISt13_Rb_tree_nodeI9SituationEEE7destroyIS1_EEvRS3_PT_
FNDA:0,_ZNSt16allocator_traitsISaISt13_Rb_tree_nodeI9SituationEEE7destroyIS1_EEvRS3_PT_
FN:547,_ZNSt16allocator_traitsISaISt3setI9SituationSt4lessIS1_ESaIS1_EEEE8max_sizeERKS6_
FNDA:980,_ZNSt16allocator_traitsISaISt3setI9SituationSt4lessIS1_ESaIS1_EEEE8max_sizeERKS6_
FN:678,_ZSt15__alloc_on_copyISaI6LetterEEvRT_RKS2_
FNDA:0,_ZSt15__alloc_on_copyISaI6LetterEEvRT_RKS2_
FN:678,_ZSt15__alloc_on_copyISaI4RuleEEvRT_RKS2_
FNDA:0,_ZSt15__alloc_on_copyISaI4RuleEEvRT_RKS2_
FN:845,_ZSt8_DestroyIPSt3setI9SituationSt4lessIS1_ESaIS1_EES5_EvT_S7_RSaIT0_E
FNDA:0,_ZSt8_DestroyIPSt3setI9SituationSt4lessIS1_ESaIS1_EES5_EvT_S7_RSaIT0_E
FN:845,_ZSt8_DestroyIN9__gnu_cxx17__normal_iteratorIP6LetterSt6vectorIS2_SaIS2_EEEES2_EvT_S8_RSaIT0_E
FNDA:10772,_ZSt8_DestroyIN9__gnu_cxx17__normal_iteratorIP6LetterSt6vectorIS2_SaIS2_EEEES2_EvT_S8_RSaIT0_E
FN:845,_ZSt8_DestroyIN9__gnu_cxx17__normal_iteratorIP4RuleSt6vectorIS2_SaIS2_EEEES2_EvT_S8_RSaIT0_E
FNDA:253,_ZSt8_DestroyIN9__gnu_cxx17__normal_iteratorIP4RuleSt6vectorIS2_SaIS2_EEEES2_EvT_S8_RSaIT0_E
FN:845,_ZSt8_DestroyIP4RuleS0_EvT_S2_RSaIT0_E
FNDA:0,_ZSt8_DestroyIP4RuleS0_EvT_S2_RSaIT0_E
FN:845,_ZSt8_DestroyIP6LetterS0_EvT_S2_RSaIT0_E
FNDA:0,_ZSt8_DestroyIP6LetterS0_EvT_S2_RSaIT0_E
DA:463,0
DA:464,0
DA:463,50029
DA:464,50029
DA:463,227
DA:464,227
DA:463,0
DA:464,0
DA:495,0
DA:496,0
DA:495,0
DA:496,0
DA:495,0
DA:496,0
DA:495,0
DA:496,0
DA:511,0
DA:516,0
DA:520,0
DA:511,5240
DA:516,5240
DA:520,5240
DA:511,263
DA:516,263
DA:520,263
DA:511,44526
DA:516,44526
DA:520,44526
DA:531,0
DA:535,0
DA:539,0
DA:531,0
DA:535,0
DA:539,0
DA:547,980
DA:550,980
DA:678,0
DA:688,0
DA:678,0
DA:688,0
DA:845,10772
DA:848,10772
DA:849,10772
DA:845,0
DA:848,0
DA:849,0
DA:845,253
DA:848,253
DA:849,253
DA:845,0
DA:848,0
DA:849,0
DA:845,0
DA:848,0
DA:849,0
end_of_record
SF:/usr/include/c++/11/ext/new_allocator.h
FN:79,_ZN9__gnu_cxx13new_allocatorIcEC2Ev
FNDA:0,_ZN9__gnu_cxx13new_allocatorIcEC2Ev
FN:79,_ZN9__gnu_cxx13new_allocatorISt13_Rb_tree_nodeI9SituationEEC2Ev
FNDA:45152,_ZN9__gnu_cxx13new_allocatorISt13_Rb_tree_nodeI9SituationEEC2Ev
FN:82,_ZN9__gnu_cxx13new_allocatorISt13_Rb_tree_nodeI9SituationEEC2ERKS4_
FNDA:0,_ZN9__gnu_cxx13new_allocatorISt13_Rb_tree_nodeI9SituationEEC2ERKS4_
FN:89,_ZN9__gnu_cxx13new_allocatorIcED2Ev
FNDA:0,_ZN9__gnu_cxx13new_allocatorIcED2Ev
FN:89,_ZN9__gnu_cxx13new_allocatorI6LetterED2Ev
FNDA:0,_ZN9__gnu_cxx13new_allocatorI6LetterED2Ev
FN:89,_ZN9__gnu_cxx13new_allocatorISt13_Rb_tree_nodeI9SituationEED2Ev
FNDA:0,_ZN9__gnu_cxx13new_allocatorISt13_Rb_tree_nodeI9SituationEED2Ev
FN:103,_ZN9__gnu_cxx13new_allocatorISt13_Rb_tree_nodeI9SituationEE8allocateEmPKv
FNDA:50029,_ZN9__gnu_cxx13new_allocatorISt13_Rb_tree_nodeI9SituationEE8allocateEmPKv
FN:103,_ZN9__gnu_cxx13new_allocatorI4RuleE8allocateEmPKv
FNDA:0,_ZN9__gnu_cxx13new_allocatorI4RuleE8allocateEmPKv
FN:103,_ZN9__gnu_cxx13new_allocatorISt3setI9SituationSt4lessIS2_ESaIS2_EEE8allocateEmPKv
FNDA:227,_ZN9__gnu_cxx13new_allocatorISt3setI9SituationSt4lessIS2_ESaIS2_EEE8allocateEmPKv
FN:103,_ZN9__gnu_cxx13new_allocatorI6LetterE8allocateEmPKv
FNDA:0,_ZN9__gnu_cxx13new_allocatorI6LetterE8allocateEmPKv
FN:132,_ZN9__gnu_cxx13new_allocatorISt13_Rb_tree_nodeI9SituationEE10deallocateEPS3_m
FNDA:0,_ZN9__gnu_cxx13new_allocatorISt13_Rb_tree_nodeI9SituationEE10deallocateEPS3_m
FN:132,_ZN9__gnu_cxx13new_allocatorISt3setI9SituationSt4lessIS2_ESaIS2_EEE10deallocateEPS6_m
FNDA:0,_ZN9__gnu_cxx13new_allocatorISt3setI9SituationSt4lessIS2_ESaIS2_EEE10deallocateEPS6_m
FN:132,_ZN9__gnu_cxx13new_allocatorI4RuleE10deallocateEPS1_m
FNDA:0,_ZN9__gnu_cxx13new_allocatorI4RuleE10deallocateEPS1_m
FN:132,_ZN9__gnu_cxx13new_allocatorI6LetterE10deallocateEPS1_m
FNDA:0,_ZN9__gnu_cxx13new_allocatorI6LetterE10deallocateEPS1_m
FN:154,_ZNK9__gnu_cxx13new_allocatorISt3setI9SituationSt4lessIS2_ESaIS2_EEE8max_sizeEv
FNDA:980,_ZNK9__gnu_cxx13new_allocatorISt3setI9SituationSt4lessIS2_ESaIS2_EEE8max_sizeEv
FN:160,_ZN9__gnu_cxx13new_allocatorISt13_Rb_tree_nodeI9SituationEE9constructIS2_JR4RuleRiiEEEvPT_DpOT0_
FNDA:44526,_ZN9__gnu_cxx13new_allocatorISt13_Rb_tree_nodeI9SituationEE9constructIS2_JR4RuleRiiEEEvPT_DpOT0_
FN:160,_ZN9__gnu_cxx13new_allocatorISt13_Rb_tree_nodeI9SituationEE9constructIS2_JRKS2_EEEvPT_DpOT0_
FNDA:263,_ZN9__gnu_cxx13new_allocatorISt13_Rb_tree_nodeI9SituationEE9constructIS2_JRKS2_EEEvPT_DpOT0_
FN:160,_ZN9__gnu_cxx13new_allocatorISt13_Rb_tree_nodeI9SituationEE9constructIS2_JS2_EEEvPT_DpOT0_
FNDA:5240,_ZN9__gnu_cxx13new_allocatorISt13_Rb_tree_nodeI9SituationEE9constructIS2_JS2_EEEvPT_DpOT0_
FN:160,_ZN9__gnu_cxx13new_allocatorISt3setI9SituationSt4lessIS2_ESaIS2_EEE9constructIS6_JS6_EEEvPT_DpOT0_
FNDA:0,_ZN9__gnu_cxx13new_allocatorISt3setI9SituationSt4lessIS2_ESaIS2_EEE9constructIS6_JS6_EEEvPT_DpOT0_
FN:166,_ZN9__gnu_cxx13new_allocatorISt13_Rb_tree_nodeI9SituationEE7destroyIS2_EEvPT_
FNDA:0,_ZN9__gnu_cxx13new_allocatorISt13_Rb_tree_nodeI9SituationEE7destroyIS2_EEvPT_
FN:166,_ZN9__gnu_cxx13new_allocatorISt3setI9SituationSt4lessIS2_ESaIS2_EEE7destroyIS6_EEvPT_
FNDA:0,_ZN9__gnu_cxx13new_allocatorISt3setI9SituationSt4lessIS2_ESaIS2_EEE7destroyIS6_EEvPT_
FN:197,_ZNK9__gnu_cxx13new_allocatorISt13_Rb_tree_nodeI9SituationEE11_M_max_sizeEv
FNDA:50029,_ZNK9__gnu_cxx13new_allocatorISt13_Rb_tree_nodeI9SituationEE11_M_max_sizeEv
FN:197,_ZNK9__gnu_cxx13new_allocatorISt3setI9SituationSt4lessIS2_ESaIS2_EEE11_M_max_sizeEv
FNDA:1207,_ZNK9__gnu_cxx13new_allocatorISt3setI9SituationSt4lessIS2_ESaIS2_EEE11_M_max_sizeEv
FN:197,_ZNK9__gnu_cxx13new_allocatorI4RuleE11_M_max_sizeEv
FNDA:0,_ZNK9__gnu_cxx13new_allocatorI4RuleE11_M_max_sizeEv
FN:197,_ZNK9__gnu_cxx13new_allocatorI6LetterE11_M_max_sizeEv
FNDA:0,_ZNK9__gnu_cxx13new_allocatorI6LetterE11_M_max_sizeEv
DA:79,45152
DA:79,0
DA:82,0
DA:89,0
DA:89,0
DA:89,0
DA:103,0
DA:111,0
DA:115,0
DA:116,0
DA:117,0
DA:127,0
DA:103,50029
DA:111,50029
DA:115,0
DA:116,0
DA:117,0
DA:127,50029
DA:103,227
DA:111,227
DA:115,0
DA:116,0
DA:117,0
DA:127,227
DA:103,0
DA:111,0
DA:115,0
DA:116,0
DA:117,0
DA:127,0
DA:132,0
DA:145,0
DA:132,0
DA:145,0
DA:132,0
DA:145,0
DA:132,0
DA:145,0
DA:154,980
DA:155,980
DA:160,0
DA:162,0
DA:160,5240
DA:162,5240
DA:160,263
DA:162,263
DA:160,44526
DA:162,44526
DA:166,0
DA:168,0
DA:166,0
DA:168,0
DA:197,0
DA:200,0
DA:197,50029
DA:200,50029
DA:197,1207
DA:200,1207
DA:197,0
DA:200,0
end_of_record
SF:/usr/include/c++/11/bits/allocator.h
FN:156,_ZNSaISt13_Rb_tree_nodeI9SituationEEC2Ev
FNDA:45152,_ZNSaISt13_Rb_tree_nodeI9SituationEEC2Ev
FN:159,_ZNSaISt13_Rb_tree_nodeI9SituationEEC2ERKS2_
FNDA:0,_ZNSaISt13_Rb_tree_nodeI9SituationEEC2ERKS2_
FN:174,_ZNSaISt13_Rb_tree_nodeI9SituationEED2Ev
FNDA:0,_ZNSaISt13_Rb_tree_nodeI9SituationEED2Ev
FN:174,_ZNSaI6LetterED2Ev
FNDA:0,_ZNSaI6LetterED2Ev
FN:209,_ZStneRKSaI6LetterES2_
FNDA:0,_ZStneRKSaI6LetterES2_
FN:209,_ZStneRKSaI4RuleES2_
FNDA:0,_ZStneRKSaI4RuleES2_
DA:156,45152
DA:159,0
DA:160,0
DA:174,0
DA:174,0
DA:209,0
DA:210,0
DA:209,0
DA:210,0
end_of_record
SF:/home/sofia/form/hpp/Situation.hpp
end_of_record
SF:/usr/include/c++/11/bits/basic_string.h
FN:533,_ZNSt7__cxx1112basic_stringIcSt11char_traitsIcESaIcEEC2IS3_EEPKcRKS3_
FNDA:0,_ZNSt7__cxx1112basic_stringIcSt11char_traitsIcESaIcEEC2IS3_EEPKcRKS3_
DA:533,0
DA:534,0
DA:536,0
DA:539,0
DA:540,0
end_of_record
SF:/usr/include/c++/11/bits/stl_tree.h
FN:146,_ZNSt20_Rb_tree_key_compareISt4lessI9SituationEEC2Ev
FNDA:45152,_ZNSt20_Rb_tree_key_compareISt4lessI9SituationEEC2Ev
FN:160,_ZNSt20_Rb_tree_key_compareISt4lessI9SituationEEC2EOS3_
FNDA:0,_ZNSt20_Rb_tree_key_compareISt4lessI9SituationEEC2EOS3_
FN:173,_ZNSt15_Rb_tree_headerC2Ev
FNDA:45154,_ZNSt15_Rb_tree_headerC2Ev
FN:180,_ZNSt15_Rb_tree_headerC2EOS_
FNDA:0,_ZNSt15_Rb_tree_headerC2EOS_
FN:193,_ZNSt15_Rb_tree_header12_M_move_dataERS_
FNDA:0,_ZNSt15_Rb_tree_header12_M_move_dataERS_
FN:206,_ZNSt15_Rb_tree_header8_M_resetEv
FNDA:45154,_ZNSt15_Rb_tree_header8_M_resetEv
FN:234,_ZNSt13_Rb_tree_nodeI9SituationE9_M_valptrEv
FNDA:0,_ZNSt13_Rb_tree_nodeI9SituationE9_M_valptrEv
FN:238,_ZNKSt13_Rb_tree_nodeI9SituationE9_M_valptrEv
FNDA:827920,_ZNKSt13_Rb_tree_nodeI9SituationE9_M_valptrEv
FN:273,_ZNSt17_Rb_tree_iteratorI9SituationEC2EPSt18_Rb_tree_node_base
FNDA:162088,_ZNSt17_Rb_tree_iteratorI9SituationEC2EPSt18_Rb_tree_node_base
FN:300,_ZNSt17_Rb_tree_iteratorI9SituationEmmEv
FNDA:33873,_ZNSt17_Rb_tree_iteratorI9SituationEmmEv
FN:315,_ZSteqRKSt17_Rb_tree_iteratorI9SituationES3_
FNDA:36315,_ZSteqRKSt17_Rb_tree_iteratorI9SituationES3_
FN:347,_ZNSt23_Rb_tree_const_iteratorI9SituationEC2EPKSt18_Rb_tree_node_base
FNDA:384805,_ZNSt23_Rb_tree_const_iteratorI9SituationEC2EPKSt18_Rb_tree_node_base
FN:350,_ZNSt23_Rb_tree_const_iteratorI9SituationEC2ERKSt17_Rb_tree_iteratorIS0_E
FNDA:62903,_ZNSt23_Rb_tree_const_iteratorI9SituationEC2ERKSt17_Rb_tree_iteratorIS0_E
FN:362,_ZNKSt23_Rb_tree_const_iteratorI9SituationEptEv
FNDA:410741,_ZNKSt23_Rb_tree_const_iteratorI9SituationEptEv
FN:366,_ZNSt23_Rb_tree_const_iteratorI9SituationEppEv
FNDA:102224,_ZNSt23_Rb_tree_const_iteratorI9SituationEppEv
FN:401,_ZStneRKSt23_Rb_tree_const_iteratorI9SituationES3_
FNDA:243646,_ZStneRKSt23_Rb_tree_const_iteratorI9SituationES3_
FN:523,_ZNSt8_Rb_treeI9SituationS0_St9_IdentityIS0_ESt4lessIS0_ESaIS0_EE11_Alloc_nodeC2ERS6_
FNDA:5503,_ZNSt8_Rb_treeI9SituationS0_St9_IdentityIS0_ESt4lessIS0_ESaIS0_EE11_Alloc_nodeC2ERS6_
FN:528,_ZNKSt8_Rb_treeI9SituationS0_St9_IdentityIS0_ESt4lessIS0_ESaIS0_EE11_Alloc_nodeclIS0_EEPSt13_Rb_tree_nodeIS0_EOT_
FNDA:5240,_ZNKSt8_Rb_treeI9SituationS0_St9_IdentityIS0_ESt4lessIS0_ESaIS0_EE11_Alloc_nodeclIS0_EEPSt13_Rb_tree_nodeIS0_EOT_
FN:528,_ZNKSt8_Rb_treeI9SituationS0_St9_IdentityIS0_ESt4lessIS0_ESaIS0_EE11_Alloc_nodeclIRKS0_EEPSt13_Rb_tree_nodeIS0_EOT_
FNDA:263,_ZNKSt8_Rb_treeI9SituationS0_St9_IdentityIS0_ESt4lessIS0_ESaIS0_EE11_Alloc_nodeclIRKS0_EEPSt13_Rb_tree_nodeIS0_EOT_
FN:547,_ZNSt8_Rb_treeI9SituationS0_St9_IdentityIS0_ESt4lessIS0_ESaIS0_EE21_M_get_Node_allocatorEv
FNDA:0,_ZNSt8_Rb_treeI9SituationS0_St9_IdentityIS0_ESt4lessIS0_ESaIS0_EE21_M_get_Node_allocatorEv
FN:560,_ZNSt8_Rb_treeI9SituationS0_St9_IdentityIS0_ESt4lessIS0_ESaIS0_EE11_M_get_nodeEv
FNDA:50029,_ZNSt8_Rb_treeI9SituationS0_St9_IdentityIS0_ESt4lessIS0_ESaIS0_EE11_M_get_nodeEv
FN:564,_ZNSt8_Rb_treeI9SituationS0_St9_IdentityIS0_ESt4lessIS0_ESaIS0_EE11_M_put_nodeEPSt13_Rb_tree_nodeIS0_E
FNDA:0,_ZNSt8_Rb_treeI9SituationS0_St9_IdentityIS0_ESt4lessIS0_ESaIS0_EE11_M_put_nodeEPSt13_Rb_tree_nodeIS0_E
FN:590,_ZNSt8_Rb_treeI9SituationS0_St9_IdentityIS0_ESt4lessIS0_ESaIS0_EE17_M_construct_nodeIJR4RuleRiiEEEvPSt13_Rb_tree_nodeIS0_EDpOT_
FNDA:44526,_ZNSt8_Rb_treeI9SituationS0_St9_IdentityIS0_ESt4lessIS0_ESaIS0_EE17_M_construct_nodeIJR4RuleRiiEEEvPSt13_Rb_tree_nodeIS0_EDpOT_
FN:590,_ZNSt8_Rb_treeI9SituationS0_St9_IdentityIS0_ESt4lessIS0_ESaIS0_EE17_M_construct_nodeIJRKS0_EEEvPSt13_Rb_tree_nodeIS0_EDpOT_
FNDA:263,_ZNSt8_Rb_treeI9SituationS0_St9_IdentityIS0_ESt4lessIS0_ESaIS0_EE17_M_construct_nodeIJRKS0_EEEvPSt13_Rb_tree_nodeIS0_EDpOT_
FN:590,_ZNSt8_Rb_treeI9SituationS0_St9_IdentityIS0_ESt4lessIS0_ESaIS0_EE17_M_construct_nodeIJS0_EEEvPSt13_Rb_tree_nodeIS0_EDpOT_
FNDA:5240,_ZNSt8_Rb_treeI9SituationS0_St9_IdentityIS0_ESt4lessIS0_ESaIS0_EE17_M_construct_nodeIJS0_EEEvPSt13_Rb_tree_nodeIS0_EDpOT_
FN:609,_ZNSt8_Rb_treeI9SituationS0_St9_IdentityIS0_ESt4lessIS0_ESaIS0_EE14_M_create_nodeIJR4RuleRiiEEEPSt13_Rb_tree_nodeIS0_EDpOT_
FNDA:44526,_ZNSt8_Rb_treeI9SituationS0_St9_IdentityIS0_ESt4lessIS0_ESaIS0_EE14_M_create_nodeIJR4RuleRiiEEEPSt13_Rb_tree_nodeIS0_EDpOT_
FN:609,_ZNSt8_Rb_treeI9SituationS0_St9_IdentityIS0_ESt4lessIS0_ESaIS0_EE14_M_create_nodeIJS0_EEEPSt13_Rb_tree_nodeIS0_EDpOT_
FNDA:5240,_ZNSt8_Rb_treeI9SituationS0_St9_IdentityIS0_ESt4lessIS0_ESaIS0_EE14_M_create_nodeIJS0_EEEPSt13_Rb_tree_nodeIS0_EDpOT_
FN:609,_ZNSt8_Rb_treeI9SituationS0_St9_IdentityIS0_ESt4lessIS0_ESaIS0_EE14_M_create_nodeIJRKS0_EEEPSt13_Rb_tree_nodeIS0_EDpOT_
FNDA:263,_ZNSt8_Rb_treeI9SituationS0_St9_IdentityIS0_ESt4lessIS0_ESaIS0_EE14_M_create_nodeIJRKS0_EEEPSt13_Rb_tree_nodeIS0_EDpOT_
FN:618,_ZNSt8_Rb_treeI9SituationS0_St9_IdentityIS0_ESt4lessIS0_ESaIS0_EE15_M_destroy_nodeEPSt13_Rb_tree_nodeIS0_E
FNDA:0,_ZNSt8_Rb_treeI9SituationS0_St9_IdentityIS0_ESt4lessIS0_ESaIS0_EE15_M_destroy_nodeEPSt13_Rb_tree_nodeIS0_E
FN:629,_ZNSt8_Rb_treeI9SituationS0_St9_IdentityIS0_ESt4lessIS0_ESaIS0_EE12_M_drop_nodeEPSt13_Rb_tree_nodeIS0_E
FNDA:0,_ZNSt8_Rb_treeI9SituationS0_St9_IdentityIS0_ESt4lessIS0_ESaIS0_EE12_M_drop_nodeEPSt13_Rb_tree_nodeIS0_E
FN:667,_ZNSt8_Rb_treeI9SituationS0_St9_IdentityIS0_ESt4lessIS0_ESaIS0_EE13_Rb_tree_implIS4_Lb1EEC2Ev
FNDA:45152,_ZNSt8_Rb_treeI9SituationS0_St9_IdentityIS0_ESt4lessIS0_ESaIS0_EE13_Rb_tree_implIS4_Lb1EEC2Ev
FN:685,_ZNSt8_Rb_treeI9SituationS0_St9_IdentityIS0_ESt4lessIS0_ESaIS0_EE13_Rb_tree_implIS4_Lb1EEC2EOS8_
FNDA:0,_ZNSt8_Rb_treeI9SituationS0_St9_IdentityIS0_ESt4lessIS0_ESaIS0_EE13_Rb_tree_implIS4_Lb1EEC2EOS8_
FN:734,_ZNKSt8_Rb_treeI9SituationS0_St9_IdentityIS0_ESt4lessIS0_ESaIS0_EE9_M_mbeginEv
FNDA:0,_ZNKSt8_Rb_treeI9SituationS0_St9_IdentityIS0_ESt4lessIS0_ESaIS0_EE9_M_mbeginEv
FN:738,_ZNSt8_Rb_treeI9SituationS0_St9_IdentityIS0_ESt4lessIS0_ESaIS0_EE8_M_beginEv
FNDA:0,_ZNSt8_Rb_treeI9SituationS0_St9_IdentityIS0_ESt4lessIS0_ESaIS0_EE8_M_beginEv
FN:749,_ZNSt8_Rb_treeI9SituationS0_St9_IdentityIS0_ESt4lessIS0_ESaIS0_EE6_M_endEv
FNDA:71411,_ZNSt8_Rb_treeI9SituationS0_St9_IdentityIS0_ESt4lessIS0_ESaIS0_EE6_M_endEv
FN:757,_ZNSt8_Rb_treeI9SituationS0_St9_IdentityIS0_ESt4lessIS0_ESaIS0_EE6_S_keyEPKSt13_Rb_tree_nodeIS0_E
FNDA:417179,_ZNSt8_Rb_treeI9SituationS0_St9_IdentityIS0_ESt4lessIS0_ESaIS0_EE6_S_keyEPKSt13_Rb_tree_nodeIS0_E
FN:779,_ZNSt8_Rb_treeI9SituationS0_St9_IdentityIS0_ESt4lessIS0_ESaIS0_EE7_S_leftEPSt18_Rb_tree_node_base
FNDA:0,_ZNSt8_Rb_treeI9SituationS0_St9_IdentityIS0_ESt4lessIS0_ESaIS0_EE7_S_leftEPSt18_Rb_tree_node_base
FN:787,_ZNSt8_Rb_treeI9SituationS0_St9_IdentityIS0_ESt4lessIS0_ESaIS0_EE8_S_rightEPSt18_Rb_tree_node_base
FNDA:0,_ZNSt8_Rb_treeI9SituationS0_St9_IdentityIS0_ESt4lessIS0_ESaIS0_EE8_S_rightEPSt18_Rb_tree_node_base
FN:795,_ZNSt8_Rb_treeI9SituationS0_St9_IdentityIS0_ESt4lessIS0_ESaIS0_EE6_S_keyEPKSt18_Rb_tree_node_base
FNDA:68454,_ZNSt8_Rb_treeI9SituationS0_St9_IdentityIS0_ESt4lessIS0_ESaIS0_EE6_S_keyEPKSt18_Rb_tree_node_base
FN:928,_ZNSt8_Rb_treeI9SituationS0_St9_IdentityIS0_ESt4lessIS0_ESaIS0_EEC2Ev
FNDA:45152,_ZNSt8_Rb_treeI9SituationS0_St9_IdentityIS0_ESt4lessIS0_ESaIS0_EEC2Ev
FN:954,_ZNSt8_Rb_treeI9SituationS0_St9_IdentityIS0_ESt4lessIS0_ESaIS0_EEC2EOS6_
FNDA:0,_ZNSt8_Rb_treeI9SituationS0_St9_IdentityIS0_ESt4lessIS0_ESaIS0_EEC2EOS6_
FN:983,_ZNSt8_Rb_treeI9SituationS0_St9_IdentityIS0_ESt4lessIS0_ESaIS0_EED2Ev
FNDA:0,_ZNSt8_Rb_treeI9SituationS0_St9_IdentityIS0_ESt4lessIS0_ESaIS0_EED2Ev
FN:995,_ZNSt8_Rb_treeI9SituationS0_St9_IdentityIS0_ESt4lessIS0_ESaIS0_EE5beginEv
FNDA:36052,_ZNSt8_Rb_treeI9SituationS0_St9_IdentityIS0_ESt4lessIS0_ESaIS0_EE5beginEv
FN:999,_ZNKSt8_Rb_treeI9SituationS0_St9_IdentityIS0_ESt4lessIS0_ESaIS0_EE5beginEv
FNDA:141159,_ZNKSt8_Rb_treeI9SituationS0_St9_IdentityIS0_ESt4lessIS0_ESaIS0_EE5beginEv
FN:1003,_ZNSt8_Rb_treeI9SituationS0_St9_IdentityIS0_ESt4lessIS0_ESaIS0_EE3endEv
FNDA:493,_ZNSt8_Rb_treeI9SituationS0_St9_IdentityIS0_ESt4lessIS0_ESaIS0_EE3endEv
FN:1007,_ZNKSt8_Rb_treeI9SituationS0_St9_IdentityIS0_ESt4lessIS0_ESaIS0_EE3endEv
FNDA:243646,_ZNKSt8_Rb_treeI9SituationS0_St9_IdentityIS0_ESt4lessIS0_ESaIS0_EE3endEv
FN:1031,_ZNKSt8_Rb_treeI9SituationS0_St9_IdentityIS0_ESt4lessIS0_ESaIS0_EE4sizeEv
FNDA:93044,_ZNKSt8_Rb_treeI9SituationS0_St9_IdentityIS0_ESt4lessIS0_ESaIS0_EE4sizeEv
FN:1771,_ZNSt8_Rb_treeI9SituationS0_St9_IdentityIS0_ESt4lessIS0_ESaIS0_EE10_M_insert_IRKS0_NS6_11_Alloc_nodeEEESt17_Rb_tree_iteratorIS0_EPSt18_Rb_tree_node_baseSE_OT_RT0_
FNDA:263,_ZNSt8_Rb_treeI9SituationS0_St9_IdentityIS0_ESt4lessIS0_ESaIS0_EE10_M_insert_IRKS0_NS6_11_Alloc_nodeEEESt17_Rb_tree_iteratorIS0_EPSt18_Rb_tree_node_baseSE_OT_RT0_
FN:1771,_ZNSt8_Rb_treeI9SituationS0_St9_IdentityIS0_ESt4lessIS0_ESaIS0_EE10_M_insert_IS0_NS6_11_Alloc_nodeEEESt17_Rb_tree_iteratorIS0_EPSt18_Rb_tree_node_baseSC_OT_RT0_
FNDA:5240,_ZNSt8_Rb_treeI9SituationS0_St9_IdentityIS0_ESt4lessIS0_ESaIS0_EE10_M_insert_IS0_NS6_11_Alloc_nodeEEESt17_Rb_tree_iteratorIS0_EPSt18_Rb_tree_node_baseSC_OT_RT0_
FN:1883,_ZNSt8_Rb_treeI9SituationS0_St9_IdentityIS0_ESt4lessIS0_ESaIS0_EE8_M_eraseEPSt13_Rb_tree_nodeIS0_E
FNDA:0,_ZNSt8_Rb_treeI9SituationS0_St9_IdentityIS0_ESt4lessIS0_ESaIS0_EE8_M_eraseEPSt13_Rb_tree_nodeIS0_E
FN:1900,_ZNSt8_Rb_treeI9SituationS0_St9_IdentityIS0_ESt4lessIS0_ESaIS0_EE14_M_lower_boundEPSt13_Rb_tree_nodeIS0_EPSt18_Rb_tree_node_baseRKS0_
FNDA:263,_ZNSt8_Rb_treeI9SituationS0_St9_IdentityIS0_ESt4lessIS0_ESaIS0_EE14_M_lower_boundEPSt13_Rb_tree_nodeIS0_EPSt18_Rb_tree_node_baseRKS0_
FN:2061,_ZNSt8_Rb_treeI9SituationS0_St9_IdentityIS0_ESt4lessIS0_ESaIS0_EE24_M_get_insert_unique_posERKS0_
FNDA:62640,_ZNSt8_Rb_treeI9SituationS0_St9_IdentityIS0_ESt4lessIS0_ESaIS0_EE24_M_get_insert_unique_posERKS0_
FN:2115,_ZNSt8_Rb_treeI9SituationS0_St9_IdentityIS0_ESt4lessIS0_ESaIS0_EE16_M_insert_uniqueIS0_EESt4pairISt17_Rb_tree_iteratorIS0_EbEOT_
FNDA:17851,_ZNSt8_Rb_treeI9SituationS0_St9_IdentityIS0_ESt4lessIS0_ESaIS0_EE16_M_insert_uniqueIS0_EESt4pairISt17_Rb_tree_iteratorIS0_EbEOT_
FN:2115,_ZNSt8_Rb_treeI9SituationS0_St9_IdentityIS0_ESt4lessIS0_ESaIS0_EE16_M_insert_uniqueIRKS0_EESt4pairISt17_Rb_tree_iteratorIS0_EbEOT_
FNDA:263,_ZNSt8_Rb_treeI9SituationS0_St9_IdentityIS0_ESt4lessIS0_ESaIS0_EE16_M_insert_uniqueIRKS0_EESt4pairISt17_Rb_tree_iteratorIS0_EbEOT_
FN:2330,_ZNSt8_Rb_treeI9SituationS0_St9_IdentityIS0_ESt4lessIS0_ESaIS0_EE14_M_insert_nodeEPSt18_Rb_tree_node_baseS8_PSt13_Rb_tree_nodeIS0_E
FNDA:3005,_ZNSt8_Rb_treeI9SituationS0_St9_IdentityIS0_ESt4lessIS0_ESaIS0_EE14_M_insert_nodeEPSt18_Rb_tree_node_baseS8_PSt13_Rb_tree_nodeIS0_E
FN:2381,_ZNSt8_Rb_treeI9SituationS0_St9_IdentityIS0_ESt4lessIS0_ESaIS0_EE17_M_emplace_uniqueIJR4RuleRiiEEESt4pairISt17_Rb_tree_iteratorIS0_EbEDpOT_
FNDA:44526,_ZNSt8_Rb_treeI9SituationS0_St9_IdentityIS0_ESt4lessIS0_ESaIS0_EE17_M_emplace_uniqueIJR4RuleRiiEEESt4pairISt17_Rb_tree_iteratorIS0_EbEDpOT_
FN:2520,_ZNSt8_Rb_treeI9SituationS0_St9_IdentityIS0_ESt4lessIS0_ESaIS0_EE4findERKS0_
FNDA:263,_ZNSt8_Rb_treeI9SituationS0_St9_IdentityIS0_ESt4lessIS0_ESaIS0_EE4findERKS0_
DA:146,45152
DA:150,45152
DA:160,0
DA:163,0
DA:173,45154
DA:174,45154
DA:175,45154
DA:176,45154
DA:177,45154
DA:180,0
DA:181,0
DA:182,0
DA:183,0
DA:186,0
DA:187,0
DA:189,0
DA:193,0
DA:195,0
DA:196,0
DA:197,0
DA:198,0
DA:199,0
DA:200,0
DA:202,0
DA:203,0
DA:206,45154
DA:208,45154
DA:209,45154
DA:210,45154
DA:211,45154
DA:212,45154
DA:234,0
DA:235,0
DA:238,827920
DA:239,827920
DA:273,162088
DA:274,162088
DA:300,33873
DA:302,33873
DA:303,33873
DA:315,36315
DA:316,36315
DA:347,384805
DA:348,384805
DA:350,62903
DA:351,62903
DA:362,410741
DA:363,410741
DA:366,102224
DA:368,102224
DA:369,102224
DA:401,243646
DA:402,243646
DA:523,5503
DA:524,5503
DA:528,5240
DA:529,5240
DA:528,263
DA:529,263
DA:547,0
DA:548,0
DA:560,50029
DA:561,50029
DA:564,0
DA:565,0
DA:590,5240
DA:594,5240
DA:595,5240
DA:599,0
DA:601,0
DA:602,0
DA:603,0
DA:605,5240
DA:590,263
DA:594,263
DA:595,263
DA:599,0
DA:601,0
DA:602,0
DA:603,0
DA:605,263
DA:590,44526
DA:594,44526
DA:595,44526
DA:599,0
DA:601,0
DA:602,0
DA:603,0
DA:605,44526
DA:609,5240
DA:611,5240
DA:612,5240
DA:613,5240
DA:609,263
DA:611,263
DA:612,263
DA:613,263
DA:609,44526
DA:611,44526
DA:612,44526
DA:613,44526
DA:618,0
DA:623,0
DA:624,0
DA:626,0
DA:629,0
DA:631,0
DA:632,0
DA:633,0
DA:667,45152
DA:671,45152
DA:672,45152
DA:685,0
DA:734,0
DA:735,0
DA:738,0
DA:739,0
DA:749,71411
DA:750,71411
DA:757,417179
DA:775,417179
DA:779,0
DA:780,0
DA:787,0
DA:788,0
DA:795,68454
DA:796,68454
DA:928,45152
DA:954,0
DA:983,0
DA:984,0
DA:995,36052
DA:996,36052
DA:999,141159
DA:1000,141159
DA:1003,493
DA:1004,493
DA:1007,243646
DA:1008,243646
DA:1031,93044
DA:1032,93044
DA:1771,5240
DA:1780,5240
DA:1781,10480
DA:1784,5240
DA:1786,5240
DA:1787,5240
DA:1788,5240
DA:1789,5240
DA:1771,263
DA:1780,263
DA:1781,526
DA:1784,263
DA:1786,263
DA:1787,263
DA:1788,263
DA:1789,263
DA:1883,0
DA:1887,0
DA:1889,0
DA:1890,0
DA:1891,0
DA:1892,0
DA:1894,0
DA:1900,263
DA:1904,481
DA:1905,218
DA:1906,33
DA:1908,185
DA:1909,263
DA:2061,62640
DA:2065,62640
DA:2066,62640
DA:2067,62640
DA:2068,363616
DA:2070,300976
DA:2071,300976
DA:2072,300976
DA:2074,62640
DA:2075,62640
DA:2077,36052
DA:2078,2179
DA:2080,33873
DA:2082,60461
DA:2083,6329
DA:2084,54132
DA:2115,17851
DA:2124,17851
DA:2126,17851
DA:2128,5240
DA:2129,5240
DA:2131,5240
DA:2134,12611
DA:2115,263
DA:2124,263
DA:2126,263
DA:2128,263
DA:2129,263
DA:2131,263
DA:2134,0
DA:2330,3005
DA:2333,3005
DA:2334,6010
DA:2337,3005
DA:2338,3005
DA:2339,3005
DA:2340,3005
DA:2381,44526
DA:2384,44526
DA:2389,44526
DA:2390,44526
DA:2391,3005
DA:2393,41521
DA:2394,41521
DA:2396,0
DA:2398,0
DA:2399,0
DA:2520,263
DA:2523,263
DA:2524,526
DA:2525,33
DA:2526,559
end_of_record
SF:/usr/include/c++/11/bits/stl_construct.h
FN:109,_ZSt10_ConstructI6LetterJRS0_EEvPT_DpOT0_
FNDA:0,_ZSt10_ConstructI6LetterJRS0_EEvPT_DpOT0_
FN:109,_ZSt10_ConstructI4RuleJRS0_EEvPT_DpOT0_
FNDA:0,_ZSt10_ConstructI4RuleJRS0_EEvPT_DpOT0_
FN:109,_ZSt10_ConstructI4RuleJRKS0_EEvPT_DpOT0_
FNDA:0,_ZSt10_ConstructI4RuleJRKS0_EEvPT_DpOT0_
FN:109,_ZSt10_ConstructISt3setI9SituationSt4lessIS1_ESaIS1_EEJEEvPT_DpOT0_
FNDA:45152,_ZSt10_ConstructISt3setI9SituationSt4lessIS1_ESaIS1_EEJEEvPT_DpOT0_
FN:109,_ZSt10_ConstructI6LetterJRKS0_EEvPT_DpOT0_
FNDA:0,_ZSt10_ConstructI6LetterJRKS0_EEvPT_DpOT0_
FN:146,_ZSt8_DestroyISt3setI9SituationSt4lessIS1_ESaIS1_EEEvPT_
FNDA:0,_ZSt8_DestroyISt3setI9SituationSt4lessIS1_ESaIS1_EEEvPT_
FN:146,_ZSt8_DestroyI4RuleEvPT_
FNDA:0,_ZSt8_DestroyI4RuleEvPT_
FN:160,_ZNSt12_Destroy_auxILb0EE9__destroyIPSt3setI9SituationSt4lessIS3_ESaIS3_EEEEvT_S9_
FNDA:0,_ZNSt12_Destroy_auxILb0EE9__destroyIPSt3setI9SituationSt4lessIS3_ESaIS3_EEEEvT_S9_
FN:160,_ZNSt12_Destroy_auxILb0EE9__destroyIN9__gnu_cxx17__normal_iteratorIP4RuleSt6vectorIS4_SaIS4_EEEEEEvT_SA_
FNDA:253,_ZNSt12_Destroy_auxILb0EE9__destroyIN9__gnu_cxx17__normal_iteratorIP4RuleSt6vectorIS4_SaIS4_EEEEEEvT_SA_
FN:160,_ZNSt12_Destroy_auxILb0EE9__destroyIP4RuleEEvT_S4_
FNDA:0,_ZNSt12_Destroy_auxILb0EE9__destroyIP4RuleEEvT_S4_
FN:172,_ZNSt12_Destroy_auxILb1EE9__destroyIN9__gnu_cxx17__normal_iteratorIP6LetterSt6vectorIS4_SaIS4_EEEEEEvT_SA_
FNDA:10772,_ZNSt12_Destroy_auxILb1EE9__destroyIN9__gnu_cxx17__normal_iteratorIP6LetterSt6vectorIS4_SaIS4_EEEEEEvT_SA_
FN:172,_ZNSt12_Destroy_auxILb1EE9__destroyIP6LetterEEvT_S4_
FNDA:0,_ZNSt12_Destroy_auxILb1EE9__destroyIP6LetterEEvT_S4_
FN:182,_ZSt8_DestroyIN9__gnu_cxx17__normal_iteratorIP6LetterSt6vectorIS2_SaIS2_EEEEEvT_S8_
FNDA:10772,_ZSt8_DestroyIN9__gnu_cxx17__normal_iteratorIP6LetterSt6vectorIS2_SaIS2_EEEEEvT_S8_
FN:182,_ZSt8_DestroyIPSt3setI9SituationSt4lessIS1_ESaIS1_EEEvT_S7_
FNDA:0,_ZSt8_DestroyIPSt3setI9SituationSt4lessIS1_ESaIS1_EEEvT_S7_
FN:182,_ZSt8_DestroyIN9__gnu_cxx17__normal_iteratorIP4RuleSt6vectorIS2_SaIS2_EEEEEvT_S8_
FNDA:253,_ZSt8_DestroyIN9__gnu_cxx17__normal_iteratorIP4RuleSt6vectorIS2_SaIS2_EEEEEvT_S8_
FN:182,_ZSt8_DestroyIP4RuleEvT_S2_
FNDA:0,_ZSt8_DestroyIP4RuleEvT_S2_
FN:182,_ZSt8_DestroyIP6LetterEvT_S2_
FNDA:0,_ZSt8_DestroyIP6LetterEvT_S2_
DA:109,0
DA:119,0
DA:120,0
DA:109,0
DA:119,0
DA:120,0
DA:109,45152
DA:119,45152
DA:120,45152
DA:109,0
DA:119,0
DA:120,0
DA:109,0
DA:119,0
DA:120,0
DA:146,0
DA:151,0
DA:153,0
DA:146,0
DA:151,0
DA:153,0
DA:160,0
DA:162,0
DA:163,0
DA:164,0
DA:160,253
DA:162,506
DA:163,253
DA:164,253
DA:160,0
DA:162,0
DA:163,0
DA:164,0
DA:172,10772
DA:172,0
DA:182,10772
DA:196,10772
DA:197,10772
DA:182,0
DA:196,0
DA:197,0
DA:182,253
DA:196,253
DA:197,253
DA:182,0
DA:196,0
DA:197,0
DA:182,0
DA:196,0
DA:197,0
end_of_record
SF:/usr/include/c++/11/bits/stl_uninitialized.h
FN:85,_ZNSt20__uninitialized_copyILb0EE13__uninit_copyIP6LetterS3_EET0_T_S5_S4_
FNDA:0,_ZNSt20__uninitialized_copyILb0EE13__uninit_copyIP6LetterS3_EET0_T_S5_S4_
FN:85,_ZNSt20__uninitialized_copyILb0EE13__uninit_copyIN9__gnu_cxx17__normal_iteratorIPK6LetterSt6vectorIS4_SaIS4_EEEEPS4_EET0_T_SD_SC_
FNDA:58616,_ZNSt20__uninitialized_copyILb0EE13__uninit_copyIN9__gnu_cxx17__normal_iteratorIPK6LetterSt6vectorIS4_SaIS4_EEEEPS4_EET0_T_SD_SC_
FN:85,_ZNSt20__uninitialized_copyILb0EE13__uninit_copyIP4RuleS3_EET0_T_S5_S4_
FNDA:0,_ZNSt20__uninitialized_copyILb0EE13__uninit_copyIP4RuleS3_EET0_T_S5_S4_
FN:85,_ZNSt20__uninitialized_copyILb0EE13__uninit_copyIN9__gnu_cxx17__normal_iteratorIPK4RuleSt6vectorIS4_SaIS4_EEEEPS4_EET0_T_SD_SC_
FNDA:0,_ZNSt20__uninitialized_copyILb0EE13__uninit_copyIN9__gnu_cxx17__normal_iteratorIPK4RuleSt6vectorIS4_SaIS4_EEEEPS4_EET0_T_SD_SC_
FN:126,_ZSt18uninitialized_copyIN9__gnu_cxx17__normal_iteratorIPK6LetterSt6vectorIS2_SaIS2_EEEEPS2_ET0_T_SB_SA_
FNDA:58616,_ZSt18uninitialized_copyIN9__gnu_cxx17__normal_iteratorIPK6LetterSt6vectorIS2_SaIS2_EEEEPS2_ET0_T_SB_SA_
FN:126,_ZSt18uninitialized_copyIP6LetterS1_ET0_T_S3_S2_
FNDA:0,_ZSt18uninitialized_copyIP6LetterS1_ET0_T_S3_S2_
FN:126,_ZSt18uninitialized_copyIP4RuleS1_ET0_T_S3_S2_
FNDA:0,_ZSt18uninitialized_copyIP4RuleS1_ET0_T_S3_S2_
FN:126,_ZSt18uninitialized_copyIN9__gnu_cxx17__normal_iteratorIPK4RuleSt6vectorIS2_SaIS2_EEEEPS2_ET0_T_SB_SA_
FNDA:0,_ZSt18uninitialized_copyIN9__gnu_cxx17__normal_iteratorIPK4RuleSt6vectorIS2_SaIS2_EEEEPS2_ET0_T_SB_SA_
FN:331,_ZSt22__uninitialized_copy_aIP4RuleS1_S0_ET0_T_S3_S2_RSaIT1_E
FNDA:0,_ZSt22__uninitialized_copy_aIP4RuleS1_S0_ET0_T_S3_S2_RSaIT1_E
FN:331,_ZSt22__uninitialized_copy_aIN9__gnu_cxx17__normal_iteratorIPK4RuleSt6vectorIS2_SaIS2_EEEEPS2_S2_ET0_T_SB_SA_RSaIT1_E
FNDA:0,_ZSt22__uninitialized_copy_aIN9__gnu_cxx17__normal_iteratorIPK4RuleSt6vectorIS2_SaIS2_EEEEPS2_S2_ET0_T_SB_SA_RSaIT1_E
FN:331,_ZSt22__uninitialized_copy_aIP6LetterS1_S0_ET0_T_S3_S2_RSaIT1_E
FNDA:0,_ZSt22__uninitialized_copy_aIP6LetterS1_S0_ET0_T_S3_S2_RSaIT1_E
FN:331,_ZSt22__uninitialized_copy_aIN9__gnu_cxx17__normal_iteratorIPK6LetterSt6vectorIS2_SaIS2_EEEEPS2_S2_ET0_T_SB_SA_RSaIT1_E
FNDA:58616,_ZSt22__uninitialized_copy_aIN9__gnu_cxx17__normal_iteratorIPK6LetterSt6vectorIS2_SaIS2_EEEEPS2_S2_ET0_T_SB_SA_RSaIT1_E
FN:573,_ZNSt27__uninitialized_default_n_1ILb0EE18__uninit_default_nIPSt3setI9SituationSt4lessIS3_ESaIS3_EEmEET_S9_T0_
FNDA:263,_ZNSt27__uninitialized_default_n_1ILb0EE18__uninit_default_nIPSt3setI9SituationSt4lessIS3_ESaIS3_EEmEET_S9_T0_
FN:630,_ZSt25__uninitialized_default_nIPSt3setI9SituationSt4lessIS1_ESaIS1_EEmET_S7_T0_
FNDA:263,_ZSt25__uninitialized_default_nIPSt3setI9SituationSt4lessIS1_ESaIS1_EEmET_S7_T0_
FN:702,_ZSt27__uninitialized_default_n_aIPSt3setI9SituationSt4lessIS1_ESaIS1_EEmS5_ET_S7_T0_RSaIT1_E
FNDA:263,_ZSt27__uninitialized_default_n_aIPSt3setI9SituationSt4lessIS1_ESaIS1_EEmS5_ET_S7_T0_RSaIT1_E
FN:986,_ZSt19__relocate_object_aISt3setI9SituationSt4lessIS1_ESaIS1_EES5_SaIS5_EEvPT_PT0_RT1_
FNDA:0,_ZSt19__relocate_object_aISt3setI9SituationSt4lessIS1_ESaIS1_EES5_SaIS5_EEvPT_PT0_RT1_
FN:1018,_ZSt14__relocate_a_1IPSt3setI9SituationSt4lessIS1_ESaIS1_EES6_SaIS5_EET0_T_S9_S8_RT1_
FNDA:227,_ZSt14__relocate_a_1IPSt3setI9SituationSt4lessIS1_ESaIS1_EES6_SaIS5_EET0_T_S9_S8_RT1_
FN:1040,_ZSt12__relocate_aIPSt3setI9SituationSt4lessIS1_ESaIS1_EES6_SaIS5_EET0_T_S9_S8_RT1_
FNDA:227,_ZSt12__relocate_aIPSt3setI9SituationSt4lessIS1_ESaIS1_EES6_SaIS5_EET0_T_S9_S8_RT1_
DA:85,58616
DA:88,58616
DA:91,392835
DA:92,334219
DA:93,58616
DA:95,0
DA:97,0
DA:98,0
DA:85,0
DA:88,0
DA:91,0
DA:92,0
DA:93,0
DA:95,0
DA:97,0
DA:98,0
DA:85,0
DA:88,0
DA:91,0
DA:92,0
DA:93,0
DA:95,0
DA:97,0
DA:98,0
DA:85,0
DA:88,0
DA:91,0
DA:92,0
DA:93,0
DA:95,0
DA:97,0
DA:98,0
DA:126,58616
DA:145,58616
DA:151,58616
DA:126,0
DA:145,0
DA:151,0
DA:126,0
DA:145,0
DA:151,0
DA:126,0
DA:145,0
DA:151,0
DA:331,58616
DA:333,58616
DA:331,0
DA:333,0
DA:331,0
DA:333,0
DA:331,0
DA:333,0
DA:573,263
DA:575,263
DA:578,45415
DA:579,45152
DA:580,263
DA:630,263
DA:635,263
DA:640,263
DA:702,263
DA:704,263
DA:986,0
DA:994,0
DA:995,0
DA:996,0
DA:1018,227
DA:1030,227
DA:1031,227
DA:1032,0
DA:1034,227
DA:1040,227
DA:1046,227
DA:1048,227
end_of_record
SF:/usr/include/c++/11/bits/stl_function.h
FN:399,_ZNKSt4lessI9SituationEclERKS0_S3_
FNDA:369648,_ZNKSt4lessI9SituationEclERKS0_S3_
FN:1154,_ZNKSt9_IdentityI9SituationEclERS0_
FNDA:22806,_ZNKSt9_IdentityI9SituationEclERS0_
FN:1158,_ZNKSt9_IdentityI9SituationEclERKS0_
FNDA:417442,_ZNKSt9_IdentityI9SituationEclERKS0_
DA:399,369648
DA:400,369648
DA:1154,22806
DA:1155,22806
DA:1158,417442
DA:1159,417442
end_of_record
SF:/usr/include/c++/11/bits/stl_vector.h
FN:276,_ZNSt12_Vector_baseI6LetterSaIS0_EE19_M_get_Tp_allocatorEv
FNDA:0,_ZNSt12_Vector_baseI6LetterSaIS0_EE19_M_get_Tp_allocatorEv
FN:276,_ZNSt12_Vector_baseI4RuleSaIS0_EE19_M_get_Tp_allocatorEv
FNDA:0,_ZNSt12_Vector_baseI4RuleSaIS0_EE19_M_get_Tp_allocatorEv
FN:276,_ZNSt12_Vector_baseISt3setI9SituationSt4lessIS1_ESaIS1_EESaIS5_EE19_M_get_Tp_allocatorEv
FNDA:0,_ZNSt12_Vector_baseISt3setI9SituationSt4lessIS1_ESaIS1_EESaIS5_EE19_M_get_Tp_allocatorEv
FN:280,_ZNKSt12_Vector_baseI4RuleSaIS0_EE19_M_get_Tp_allocatorEv
FNDA:0,_ZNKSt12_Vector_baseI4RuleSaIS0_EE19_M_get_Tp_allocatorEv
FN:280,_ZNKSt12_Vector_baseISt3setI9SituationSt4lessIS1_ESaIS1_EESaIS5_EE19_M_get_Tp_allocatorEv
FNDA:980,_ZNKSt12_Vector_baseISt3setI9SituationSt4lessIS1_ESaIS1_EESaIS5_EE19_M_get_Tp_allocatorEv
FN:280,_ZNKSt12_Vector_baseI6LetterSaIS0_EE19_M_get_Tp_allocatorEv
FNDA:0,_ZNKSt12_Vector_baseI6LetterSaIS0_EE19_M_get_Tp_allocatorEv
FN:333,_ZNSt12_Vector_baseI6LetterSaIS0_EED2Ev
FNDA:0,_ZNSt12_Vector_baseI6LetterSaIS0_EED2Ev
FN:343,_ZNSt12_Vector_baseI4RuleSaIS0_EE11_M_allocateEm
FNDA:0,_ZNSt12_Vector_baseI4RuleSaIS0_EE11_M_allocateEm
FN:343,_ZNSt12_Vector_baseI6LetterSaIS0_EE11_M_allocateEm
FNDA:0,_ZNSt12_Vector_baseI6LetterSaIS0_EE11_M_allocateEm
FN:343,_ZNSt12_Vector_baseISt3setI9SituationSt4lessIS1_ESaIS1_EESaIS5_EE11_M_allocateEm
FNDA:227,_ZNSt12_Vector_baseISt3setI9SituationSt4lessIS1_ESaIS1_EESaIS5_EE11_M_allocateEm
FN:350,_ZNSt12_Vector_baseI6LetterSaIS0_EE13_M_deallocateEPS0_m
FNDA:0,_ZNSt12_Vector_baseI6LetterSaIS0_EE13_M_deallocateEPS0_m
FN:350,_ZNSt12_Vector_baseISt3setI9SituationSt4lessIS1_ESaIS1_EESaIS5_EE13_M_deallocateEPS5_m
FNDA:0,_ZNSt12_Vector_baseISt3setI9SituationSt4lessIS1_ESaIS1_EESaIS5_EE13_M_deallocateEPS5_m
FN:350,_ZNSt12_Vector_baseI4RuleSaIS0_EE13_M_deallocateEPS0_m
FNDA:0,_ZNSt12_Vector_baseI4RuleSaIS0_EE13_M_deallocateEPS0_m
FN:453,_ZNSt6vectorISt3setI9SituationSt4lessIS1_ESaIS1_EESaIS5_EE14_S_do_relocateEPS5_S8_S8_RS6_St17integral_constantIbLb1EE
FNDA:227,_ZNSt6vectorISt3setI9SituationSt4lessIS1_ESaIS1_EESaIS5_EE14_S_do_relocateEPS5_S8_S8_RS6_St17integral_constantIbLb1EE
FN:465,_ZNSt6vectorISt3setI9SituationSt4lessIS1_ESaIS1_EESaIS5_EE11_S_relocateEPS5_S8_S8_RS6_
FNDA:227,_ZNSt6vectorISt3setI9SituationSt4lessIS1_ESaIS1_EESaIS5_EE11_S_relocateEPS5_S8_S8_RS6_
FN:678,_ZNSt6vectorI6LetterSaIS0_EED2Ev
FNDA:0,_ZNSt6vectorI6LetterSaIS0_EED2Ev
FN:811,_ZNSt6vectorI4RuleSaIS0_EE5beginEv
FNDA:0,_ZNSt6vectorI4RuleSaIS0_EE5beginEv
FN:811,_ZNSt6vectorI6LetterSaIS0_EE5beginEv
FNDA:10772,_ZNSt6vectorI6LetterSaIS0_EE5beginEv
FN:820,_ZNKSt6vectorI6LetterSaIS0_EE5beginEv
FNDA:69388,_ZNKSt6vectorI6LetterSaIS0_EE5beginEv
FN:820,_ZNKSt6vectorI4RuleSaIS0_EE5beginEv
FNDA:0,_ZNKSt6vectorI4RuleSaIS0_EE5beginEv
FN:829,_ZNSt6vectorI4RuleSaIS0_EE3endEv
FNDA:0,_ZNSt6vectorI4RuleSaIS0_EE3endEv
FN:829,_ZNSt6vectorI6LetterSaIS0_EE3endEv
FNDA:10772,_ZNSt6vectorI6LetterSaIS0_EE3endEv
FN:838,_ZNKSt6vectorI6LetterSaIS0_EE3endEv
FNDA:69388,_ZNKSt6vectorI6LetterSaIS0_EE3endEv
FN:838,_ZNKSt6vectorI4RuleSaIS0_EE3endEv
FNDA:0,_ZNKSt6vectorI4RuleSaIS0_EE3endEv
FN:918,_ZNKSt6vectorISt3setI9SituationSt4lessIS1_ESaIS1_EESaIS5_EE4sizeEv
FNDA:1697,_ZNKSt6vectorISt3setI9SituationSt4lessIS1_ESaIS1_EESaIS5_EE4sizeEv
FN:918,_ZNKSt6vectorI4RuleSaIS0_EE4sizeEv
FNDA:0,_ZNKSt6vectorI4RuleSaIS0_EE4sizeEv
FN:918,_ZNKSt6vectorI6LetterSaIS0_EE4sizeEv
FNDA:0,_ZNKSt6vectorI6LetterSaIS0_EE4sizeEv
FN:923,_ZNKSt6vectorISt3setI9SituationSt4lessIS1_ESaIS1_EESaIS5_EE8max_sizeEv
FNDA:980,_ZNKSt6vectorISt3setI9SituationSt4lessIS1_ESaIS1_EESaIS5_EE8max_sizeEv
FN:937,_ZNSt6vectorISt3setI9SituationSt4lessIS1_ESaIS1_EESaIS5_EE6resizeEm
FNDA:263,_ZNSt6vectorISt3setI9SituationSt4lessIS1_ESaIS1_EESaIS5_EE6resizeEm
FN:998,_ZNKSt6vectorI4RuleSaIS0_EE8capacityEv
FNDA:263,_ZNKSt6vectorI4RuleSaIS0_EE8capacityEv
FN:998,_ZNKSt6vectorI6LetterSaIS0_EE8capacityEv
FNDA:69388,_ZNKSt6vectorI6LetterSaIS0_EE8capacityEv
FN:1043,_ZNSt6vectorI4RuleSaIS0_EEixEm
FNDA:119113,_ZNSt6vectorI4RuleSaIS0_EEixEm
FN:1043,_ZNSt6vectorISt3setI9SituationSt4lessIS1_ESaIS1_EESaIS5_EEixEm
FNDA:540752,_ZNSt6vectorISt3setI9SituationSt4lessIS1_ESaIS1_EESaIS5_EEixEm
FN:1498,_ZNSt6vectorI4RuleSaIS0_EE5clearEv
FNDA:0,_ZNSt6vectorI4RuleSaIS0_EE5clearEv
FN:1498,_ZNSt6vectorI6LetterSaIS0_EE5clearEv
FNDA:0,_ZNSt6vectorI6LetterSaIS0_EE5clearEv
FN:1498,_ZNSt6vectorISt3setI9SituationSt4lessIS1_ESaIS1_EESaIS5_EE5clearEv
FNDA:263,_ZNSt6vectorISt3setI9SituationSt4lessIS1_ESaIS1_EESaIS5_EE5clearEv
FN:1508,_ZNSt6vectorI6LetterSaIS0_EE20_M_allocate_and_copyIN9__gnu_cxx17__normal_iteratorIPKS0_S2_EEEEPS0_mT_SA_
FNDA:58616,_ZNSt6vectorI6LetterSaIS0_EE20_M_allocate_and_copyIN9__gnu_cxx17__normal_iteratorIPKS0_S2_EEEEPS0_mT_SA_
FN:1508,_ZNSt6vectorI4RuleSaIS0_EE20_M_allocate_and_copyIN9__gnu_cxx17__normal_iteratorIPKS0_S2_EEEEPS0_mT_SA_
FNDA:10,_ZNSt6vectorI4RuleSaIS0_EE20_M_allocate_and_copyIN9__gnu_cxx17__normal_iteratorIPKS0_S2_EEEEPS0_mT_SA_
FN:1756,_ZNKSt6vectorISt3setI9SituationSt4lessIS1_ESaIS1_EESaIS5_EE12_M_check_lenEmPKc
FNDA:227,_ZNKSt6vectorISt3setI9SituationSt4lessIS1_ESaIS1_EESaIS5_EE12_M_check_lenEmPKc
FN:1776,_ZNSt6vectorISt3setI9SituationSt4lessIS1_ESaIS1_EESaIS5_EE11_S_max_sizeERKS6_
FNDA:980,_ZNSt6vectorISt3setI9SituationSt4lessIS1_ESaIS1_EESaIS5_EE11_S_max_sizeERKS6_
FN:1792,_ZNSt6vectorI4RuleSaIS0_EE15_M_erase_at_endEPS0_
FNDA:0,_ZNSt6vectorI4RuleSaIS0_EE15_M_erase_at_endEPS0_
FN:1792,_ZNSt6vectorISt3setI9SituationSt4lessIS1_ESaIS1_EESaIS5_EE15_M_erase_at_endEPS5_
FNDA:263,_ZNSt6vectorISt3setI9SituationSt4lessIS1_ESaIS1_EESaIS5_EE15_M_erase_at_endEPS5_
FN:1792,_ZNSt6vectorI6LetterSaIS0_EE15_M_erase_at_endEPS0_
FNDA:0,_ZNSt6vectorI6LetterSaIS0_EE15_M_erase_at_endEPS0_
DA:276,0
DA:277,0
DA:276,0
DA:277,0
DA:276,0
DA:277,0
DA:280,0
DA:281,0
DA:280,980
DA:281,980
DA:280,0
DA:281,0
DA:333,0
DA:335,0
DA:336,0
DA:337,0
DA:343,0
DA:346,0
DA:343,227
DA:346,227
DA:343,0
DA:346,0
DA:350,0
DA:353,0
DA:354,0
DA:355,0
DA:350,0
DA:353,0
DA:354,0
DA:355,0
DA:350,0
DA:353,0
DA:354,0
DA:355,0
DA:453,227
DA:456,227
DA:465,227
DA:469,227
DA:678,0
DA:680,0
DA:681,0
DA:683,0
DA:811,10772
DA:812,10772
DA:811,0
DA:812,0
DA:820,69388
DA:821,69388
DA:820,0
DA:821,0
DA:829,10772
DA:830,10772
DA:829,0
DA:830,0
DA:838,69388
DA:839,69388
DA:838,0
DA:839,0
DA:918,0
DA:919,0
DA:918,1697
DA:919,1697
DA:918,0
DA:919,0
DA:923,980
DA:924,980
DA:937,263
DA:939,263
DA:940,263
DA:941,0
DA:942,0
DA:943,263
DA:998,69388
DA:999,69388
DA:1000,69388
DA:998,263
DA:999,263
DA:1000,263
DA:1043,119113
DA:1046,119113
DA:1043,540752
DA:1046,540752
DA:1498,0
DA:1499,0
DA:1498,0
DA:1499,0
DA:1498,263
DA:1499,263
DA:1508,58616
DA:1511,58616
DA:1514,58616
DA:1515,58616
DA:1516,58616
DA:1518,0
DA:1520,0
DA:1521,0
DA:1508,10
DA:1511,10
DA:1514,10
DA:1515,10
DA:1516,10
DA:1518,0
DA:1520,0
DA:1521,0
DA:1756,227
DA:1758,227
DA:1759,0
DA:1761,227
DA:1762,227
DA:1776,980
DA:1781,980
DA:1783,980
DA:1784,980
DA:1792,0
DA:1794,0
DA:1796,0
DA:1797,0
DA:1798,0
DA:1801,0
DA:1792,0
DA:1794,0
DA:1796,0
DA:1797,0
DA:1798,0
DA:1801,0
DA:1792,263
DA:1794,263
DA:1796,253
DA:1797,253
DA:1798,253
DA:1801,263
end_of_record
SF:/usr/include/c++/11/ext/type_traits.h
FN:152,_ZN9__gnu_cxx17__is_null_pointerIKcEEbPT_
FNDA:0,_ZN9__gnu_cxx17__is_null_pointerIKcEEbPT_
DA:152,0
DA:153,0
end_of_record
SF:/usr/include/c++/11/bits/stl_pair.h
FN:322,_ZNSt4pairIPSt18_Rb_tree_node_baseS1_EC2IRS1_Lb1EEEOT_RKS1_
FNDA:54132,_ZNSt4pairIPSt18_Rb_tree_node_baseS1_EC2IRS1_Lb1EEEOT_RKS1_
FN:352,_ZNSt4pairIPSt18_Rb_tree_node_baseS1_EC2IRPSt13_Rb_tree_nodeI9SituationERS1_Lb1EEEOT_OT0_
FNDA:8508,_ZNSt4pairIPSt18_Rb_tree_node_baseS1_EC2IRPSt13_Rb_tree_nodeI9SituationERS1_Lb1EEEOT_OT0_
FN:352,_ZNSt4pairISt17_Rb_tree_iteratorI9SituationEbEC2IS2_bLb1EEEOT_OT0_
FNDA:62640,_ZNSt4pairISt17_Rb_tree_iteratorI9SituationEbEC2IS2_bLb1EEEOT_OT0_
FN:352,_ZNSt4pairISt23_Rb_tree_const_iteratorI9SituationEbEC2IRSt17_Rb_tree_iteratorIS1_ERbLb1EEEOT_OT0_
FNDA:18114,_ZNSt4pairISt23_Rb_tree_const_iteratorI9SituationEbEC2IRSt17_Rb_tree_iteratorIS1_ERbLb1EEEOT_OT0_
FN:371,_ZNSt4pairISt23_Rb_tree_const_iteratorI9SituationEbEC2ISt17_Rb_tree_iteratorIS1_EbLb1EEEOS_IT_T0_E
FNDA:44526,_ZNSt4pairISt23_Rb_tree_const_iteratorI9SituationEbEC2ISt17_Rb_tree_iteratorIS1_EbLb1EEEOS_IT_T0_E
DA:322,54132
DA:323,54132
DA:352,8508
DA:353,8508
DA:352,62640
DA:353,62640
DA:352,18114
DA:353,18114
DA:371,44526
DA:372,44526
DA:373,44526
end_of_record
SF:/usr/include/c++/11/bits/stl_iterator_base_types.h
FN:238,_ZSt19__iterator_categoryIPKcENSt15iterator_traitsIT_E17iterator_categoryERKS3_
FNDA:0,_ZSt19__iterator_categoryIPKcENSt15iterator_traitsIT_E17iterator_categoryERKS3_
DA:238,0
DA:239,0
end_of_record
SF:/usr/include/c++/11/bits/stl_algobase.h
FN:230,_ZSt3minImERKT_S2_S2_
FNDA:0,_ZSt3minImERKT_S2_S2_
FN:254,_ZSt3maxImERKT_S2_S2_
FNDA:0,_ZSt3maxImERKT_S2_S2_
FN:313,_ZSt12__niter_baseIP4RuleET_S2_
FNDA:0,_ZSt12__niter_baseIP4RuleET_S2_
FN:313,_ZSt12__niter_baseIP6LetterET_S2_
FNDA:0,_ZSt12__niter_baseIP6LetterET_S2_
FN:313,_ZSt12__niter_baseIPSt3setI9SituationSt4lessIS1_ESaIS1_EEET_S7_
FNDA:681,_ZSt12__niter_baseIPSt3setI9SituationSt4lessIS1_ESaIS1_EEET_S7_
FN:328,_ZSt12__niter_wrapIN9__gnu_cxx17__normal_iteratorIP4RuleSt6vectorIS2_SaIS2_EEEES3_ET_S8_T0_
FNDA:253,_ZSt12__niter_wrapIN9__gnu_cxx17__normal_iteratorIP4RuleSt6vectorIS2_SaIS2_EEEES3_ET_S8_T0_
FN:328,_ZSt12__niter_wrapIN9__gnu_cxx17__normal_iteratorIP6LetterSt6vectorIS2_SaIS2_EEEES3_ET_S8_T0_
FNDA:10772,_ZSt12__niter_wrapIN9__gnu_cxx17__normal_iteratorIP6LetterSt6vectorIS2_SaIS2_EEEES3_ET_S8_T0_
FN:335,_ZSt12__niter_wrapIP4RuleET_RKS2_S2_
FNDA:0,_ZSt12__niter_wrapIP4RuleET_RKS2_S2_
FN:335,_ZSt12__niter_wrapIP6LetterET_RKS2_S2_
FNDA:0,_ZSt12__niter_wrapIP6LetterET_RKS2_S2_
FN:380,_ZNSt11__copy_moveILb0ELb0ESt26random_access_iterator_tagE8__copy_mIPK6LetterPS3_EET0_T_S8_S7_
FNDA:10772,_ZNSt11__copy_moveILb0ELb0ESt26random_access_iterator_tagE8__copy_mIPK6LetterPS3_EET0_T_S8_S7_
FN:380,_ZNSt11__copy_moveILb0ELb0ESt26random_access_iterator_tagE8__copy_mIPK4RulePS3_EET0_T_S8_S7_
FNDA:253,_ZNSt11__copy_moveILb0ELb0ESt26random_access_iterator_tagE8__copy_mIPK4RulePS3_EET0_T_S8_S7_
FN:380,_ZNSt11__copy_moveILb0ELb0ESt26random_access_iterator_tagE8__copy_mIP4RuleS4_EET0_T_S6_S5_
FNDA:0,_ZNSt11__copy_moveILb0ELb0ESt26random_access_iterator_tagE8__copy_mIP4RuleS4_EET0_T_S6_S5_
FN:380,_ZNSt11__copy_moveILb0ELb0ESt26random_access_iterator_tagE8__copy_mIP6LetterS4_EET0_T_S6_S5_
FNDA:0,_ZNSt11__copy_moveILb0ELb0ESt26random_access_iterator_tagE8__copy_mIP6LetterS4_EET0_T_S6_S5_
FN:486,_ZSt14__copy_move_a2ILb0EP4RuleS1_ET1_T0_S3_S2_
FNDA:0,_ZSt14__copy_move_a2ILb0EP4RuleS1_ET1_T0_S3_S2_
FN:486,_ZSt14__copy_move_a2ILb0EPK4RulePS0_ET1_T0_S5_S4_
FNDA:253,_ZSt14__copy_move_a2ILb0EPK4RulePS0_ET1_T0_S5_S4_
FN:486,_ZSt14__copy_move_a2ILb0EPK6LetterPS0_ET1_T0_S5_S4_
FNDA:10772,_ZSt14__copy_move_a2ILb0EPK6LetterPS0_ET1_T0_S5_S4_
FN:486,_ZSt14__copy_move_a2ILb0EP6LetterS1_ET1_T0_S3_S2_
FNDA:0,_ZSt14__copy_move_a2ILb0EP6LetterS1_ET1_T0_S3_S2_
FN:521,_ZSt14__copy_move_a1ILb0EPK6LetterPS0_ET1_T0_S5_S4_
FNDA:10772,_ZSt14__copy_move_a1ILb0EPK6LetterPS0_ET1_T0_S5_S4_
FN:521,_ZSt14__copy_move_a1ILb0EP6LetterS1_ET1_T0_S3_S2_
FNDA:0,_ZSt14__copy_move_a1ILb0EP6LetterS1_ET1_T0_S3_S2_
FN:521,_ZSt14__copy_move_a1ILb0EP4RuleS1_ET1_T0_S3_S2_
FNDA:0,_ZSt14__copy_move_a1ILb0EP4RuleS1_ET1_T0_S3_S2_
FN:521,_ZSt14__copy_move_a1ILb0EPK4RulePS0_ET1_T0_S5_S4_
FNDA:253,_ZSt14__copy_move_a1ILb0EPK4RulePS0_ET1_T0_S5_S4_
FN:527,_ZSt13__copy_move_aILb0EN9__gnu_cxx17__normal_iteratorIPK6LetterSt6vectorIS2_SaIS2_EEEENS1_IPS2_S7_EEET1_T0_SC_SB_
FNDA:10772,_ZSt13__copy_move_aILb0EN9__gnu_cxx17__normal_iteratorIPK6LetterSt6vectorIS2_SaIS2_EEEENS1_IPS2_S7_EEET1_T0_SC_SB_
FN:527,_ZSt13__copy_move_aILb0EP6LetterS1_ET1_T0_S3_S2_
FNDA:0,_ZSt13__copy_move_aILb0EP6LetterS1_ET1_T0_S3_S2_
FN:527,_ZSt13__copy_move_aILb0EP4RuleS1_ET1_T0_S3_S2_
FNDA:0,_ZSt13__copy_move_aILb0EP4RuleS1_ET1_T0_S3_S2_
FN:527,_ZSt13__copy_move_aILb0EN9__gnu_cxx17__normal_iteratorIPK4RuleSt6vectorIS2_SaIS2_EEEENS1_IPS2_S7_EEET1_T0_SC_SB_
FNDA:253,_ZSt13__copy_move_aILb0EN9__gnu_cxx17__normal_iteratorIPK4RuleSt6vectorIS2_SaIS2_EEEENS1_IPS2_S7_EEET1_T0_SC_SB_
FN:611,_ZSt4copyIN9__gnu_cxx17__normal_iteratorIPK4RuleSt6vectorIS2_SaIS2_EEEENS1_IPS2_S7_EEET0_T_SC_SB_
FNDA:253,_ZSt4copyIN9__gnu_cxx17__normal_iteratorIPK4RuleSt6vectorIS2_SaIS2_EEEENS1_IPS2_S7_EEET0_T_SC_SB_
FN:611,_ZSt4copyIN9__gnu_cxx17__normal_iteratorIPK6LetterSt6vectorIS2_SaIS2_EEEENS1_IPS2_S7_EEET0_T_SC_SB_
FNDA:10772,_ZSt4copyIN9__gnu_cxx17__normal_iteratorIPK6LetterSt6vectorIS2_SaIS2_EEEENS1_IPS2_S7_EEET0_T_SC_SB_
FN:611,_ZSt4copyIP4RuleS1_ET0_T_S3_S2_
FNDA:0,_ZSt4copyIP4RuleS1_ET0_T_S3_S2_
FN:611,_ZSt4copyIP6LetterS1_ET0_T_S3_S2_
FNDA:0,_ZSt4copyIP6LetterS1_ET0_T_S3_S2_
DA:230,0
DA:235,0
DA:236,0
DA:237,0
DA:254,0
DA:259,0
DA:260,0
DA:261,0
DA:313,0
DA:315,0
DA:313,681
DA:315,681
DA:313,0
DA:315,0
DA:328,10772
DA:329,10772
DA:328,253
DA:329,253
DA:335,0
DA:336,0
DA:335,0
DA:336,0
DA:380,0
DA:383,0
DA:385,0
DA:386,0
DA:387,0
DA:389,0
DA:380,10772
DA:383,12817
DA:385,2045
DA:386,2045
DA:387,2045
DA:389,10772
DA:380,0
DA:383,0
DA:385,0
DA:386,0
DA:387,0
DA:389,0
DA:380,253
DA:383,1235
DA:385,982
DA:386,982
DA:387,982
DA:389,253
DA:486,0
DA:495,0
DA:486,10772
DA:495,10772
DA:486,0
DA:495,0
DA:486,253
DA:495,253
DA:521,0
DA:522,0
DA:521,10772
DA:522,10772
DA:521,0
DA:522,0
DA:521,253
DA:522,253
DA:527,0
DA:529,0
DA:532,0
DA:527,10772
DA:529,10772
DA:532,10772
DA:527,0
DA:529,0
DA:532,0
DA:527,253
DA:529,253
DA:532,253
DA:611,0
DA:620,0
DA:611,10772
DA:620,10772
DA:611,0
DA:620,0
DA:611,253
DA:620,253
end_of_record
SF:/usr/include/c++/11/bits/stl_set.h
FN:167,_ZNSt3setI9SituationSt4lessIS0_ESaIS0_EEC2Ev
FNDA:45152,_ZNSt3setI9SituationSt4lessIS0_ESaIS0_EEC2Ev
FN:231,_ZNSt3setI9SituationSt4lessIS0_ESaIS0_EEC2EOS4_
FNDA:0,_ZNSt3setI9SituationSt4lessIS0_ESaIS0_EEC2EOS4_
FN:281,_ZNSt3setI9SituationSt4lessIS0_ESaIS0_EED2Ev
FNDA:0,_ZNSt3setI9SituationSt4lessIS0_ESaIS0_EED2Ev
FN:344,_ZNKSt3setI9SituationSt4lessIS0_ESaIS0_EE5beginEv
FNDA:141159,_ZNKSt3setI9SituationSt4lessIS0_ESaIS0_EE5beginEv
FN:353,_ZNKSt3setI9SituationSt4lessIS0_ESaIS0_EE3endEv
FNDA:243646,_ZNKSt3setI9SituationSt4lessIS0_ESaIS0_EE3endEv
FN:419,_ZNKSt3setI9SituationSt4lessIS0_ESaIS0_EE4sizeEv
FNDA:93044,_ZNKSt3setI9SituationSt4lessIS0_ESaIS0_EE4sizeEv
FN:462,_ZNSt3setI9SituationSt4lessIS0_ESaIS0_EE7emplaceIJR4RuleRiiEEESt4pairISt23_Rb_tree_const_iteratorIS0_EbEDpOT_
FNDA:44526,_ZNSt3setI9SituationSt4lessIS0_ESaIS0_EE7emplaceIJR4RuleRiiEEESt4pairISt23_Rb_tree_const_iteratorIS0_EbEDpOT_
FN:509,_ZNSt3setI9SituationSt4lessIS0_ESaIS0_EE6insertERKS0_
FNDA:263,_ZNSt3setI9SituationSt4lessIS0_ESaIS0_EE6insertERKS0_
FN:518,_ZNSt3setI9SituationSt4lessIS0_ESaIS0_EE6insertEOS0_
FNDA:17851,_ZNSt3setI9SituationSt4lessIS0_ESaIS0_EE6insertEOS0_
FN:794,_ZNSt3setI9SituationSt4lessIS0_ESaIS0_EE4findERKS0_
FNDA:263,_ZNSt3setI9SituationSt4lessIS0_ESaIS0_EE4findERKS0_
DA:167,45152
DA:231,0
DA:281,0
DA:344,141159
DA:345,141159
DA:353,243646
DA:354,243646
DA:419,93044
DA:420,93044
DA:462,44526
DA:463,44526
DA:509,263
DA:512,263
DA:513,263
DA:518,17851
DA:521,17851
DA:522,17851
DA:794,263
DA:795,263
end_of_record
SF:/usr/include/c++/11/bits/cpp_type_traits.h
FN:560,_ZSt12__miter_baseIP6LetterET_S2_
FNDA:0,_ZSt12__miter_baseIP6LetterET_S2_
FN:560,_ZSt12__miter_baseIN9__gnu_cxx17__normal_iteratorIPK6LetterSt6vectorIS2_SaIS2_EEEEET_S9_
FNDA:21544,_ZSt12__miter_baseIN9__gnu_cxx17__normal_iteratorIPK6LetterSt6vectorIS2_SaIS2_EEEEET_S9_
FN:560,_ZSt12__miter_baseIP4RuleET_S2_
FNDA:0,_ZSt12__miter_baseIP4RuleET_S2_
FN:560,_ZSt12__miter_baseIN9__gnu_cxx17__normal_iteratorIPK4RuleSt6vectorIS2_SaIS2_EEEEET_S9_
FNDA:506,_ZSt12__miter_baseIN9__gnu_cxx17__normal_iteratorIPK4RuleSt6vectorIS2_SaIS2_EEEEET_S9_
DA:560,0
DA:561,0
DA:560,21544
DA:561,21544
DA:560,0
DA:561,0
DA:560,506
DA:561,506
end_of_record
SF:/usr/include/c++/11/bits/stl_iterator.h
FN:1010,_ZN9__gnu_cxx17__normal_iteratorIPK4RuleSt6vectorIS1_SaIS1_EEEC2ERKS3_
FNDA:0,_ZN9__gnu_cxx17__normal_iteratorIPK4RuleSt6vectorIS1_SaIS1_EEEC2ERKS3_
FN:1010,_ZN9__gnu_cxx17__normal_iteratorIP4RuleSt6vectorIS1_SaIS1_EEEC2ERKS2_
FNDA:0,_ZN9__gnu_cxx17__normal_iteratorIP4RuleSt6vectorIS1_SaIS1_EEEC2ERKS2_
FN:1010,_ZN9__gnu_cxx17__normal_iteratorIPK6LetterSt6vectorIS1_SaIS1_EEEC2ERKS3_
FNDA:138776,_ZN9__gnu_cxx17__normal_iteratorIPK6LetterSt6vectorIS1_SaIS1_EEEC2ERKS3_
FN:1010,_ZN9__gnu_cxx17__normal_iteratorIP6LetterSt6vectorIS1_SaIS1_EEEC2ERKS2_
FNDA:32316,_ZN9__gnu_cxx17__normal_iteratorIP6LetterSt6vectorIS1_SaIS1_EEEC2ERKS2_
FN:1025,_ZNK9__gnu_cxx17__normal_iteratorIP4RuleSt6vectorIS1_SaIS1_EEEdeEv
FNDA:253,_ZNK9__gnu_cxx17__normal_iteratorIP4RuleSt6vectorIS1_SaIS1_EEEdeEv
FN:1025,_ZNK9__gnu_cxx17__normal_iteratorIPK6LetterSt6vectorIS1_SaIS1_EEEdeEv
FNDA:334219,_ZNK9__gnu_cxx17__normal_iteratorIPK6LetterSt6vectorIS1_SaIS1_EEEdeEv
FN:1025,_ZNK9__gnu_cxx17__normal_iteratorIPK4RuleSt6vectorIS1_SaIS1_EEEdeEv
FNDA:0,_ZNK9__gnu_cxx17__normal_iteratorIPK4RuleSt6vectorIS1_SaIS1_EEEdeEv
FN:1035,_ZN9__gnu_cxx17__normal_iteratorIPK4RuleSt6vectorIS1_SaIS1_EEEppEv
FNDA:0,_ZN9__gnu_cxx17__normal_iteratorIPK4RuleSt6vectorIS1_SaIS1_EEEppEv
FN:1035,_ZN9__gnu_cxx17__normal_iteratorIP4RuleSt6vectorIS1_SaIS1_EEEppEv
FNDA:253,_ZN9__gnu_cxx17__normal_iteratorIP4RuleSt6vectorIS1_SaIS1_EEEppEv
FN:1035,_ZN9__gnu_cxx17__normal_iteratorIPK6LetterSt6vectorIS1_SaIS1_EEEppEv
FNDA:334219,_ZN9__gnu_cxx17__normal_iteratorIPK6LetterSt6vectorIS1_SaIS1_EEEppEv
FN:1073,_ZNK9__gnu_cxx17__normal_iteratorIP6LetterSt6vectorIS1_SaIS1_EEEplEl
FNDA:10772,_ZNK9__gnu_cxx17__normal_iteratorIP6LetterSt6vectorIS1_SaIS1_EEEplEl
FN:1073,_ZNK9__gnu_cxx17__normal_iteratorIP4RuleSt6vectorIS1_SaIS1_EEEplEl
FNDA:253,_ZNK9__gnu_cxx17__normal_iteratorIP4RuleSt6vectorIS1_SaIS1_EEEplEl
FN:1088,_ZNK9__gnu_cxx17__normal_iteratorIPK6LetterSt6vectorIS1_SaIS1_EEE4baseEv
FNDA:807214,_ZNK9__gnu_cxx17__normal_iteratorIPK6LetterSt6vectorIS1_SaIS1_EEE4baseEv
FN:1088,_ZNK9__gnu_cxx17__normal_iteratorIP6LetterSt6vectorIS1_SaIS1_EEE4baseEv
FNDA:21544,_ZNK9__gnu_cxx17__normal_iteratorIP6LetterSt6vectorIS1_SaIS1_EEE4baseEv
FN:1088,_ZNK9__gnu_cxx17__normal_iteratorIP4RuleSt6vectorIS1_SaIS1_EEE4baseEv
FNDA:0,_ZNK9__gnu_cxx17__normal_iteratorIP4RuleSt6vectorIS1_SaIS1_EEE4baseEv
FN:1088,_ZNK9__gnu_cxx17__normal_iteratorIPK4RuleSt6vectorIS1_SaIS1_EEE4baseEv
FNDA:0,_ZNK9__gnu_cxx17__normal_iteratorIPK4RuleSt6vectorIS1_SaIS1_EEE4baseEv
FN:1145,_ZN9__gnu_cxxneIPK4RuleSt6vectorIS1_SaIS1_EEEEbRKNS_17__normal_iteratorIT_T0_EESC_
FNDA:0,_ZN9__gnu_cxxneIPK4RuleSt6vectorIS1_SaIS1_EEEEbRKNS_17__normal_iteratorIT_T0_EESC_
FN:1145,_ZN9__gnu_cxxneIP4RuleSt6vectorIS1_SaIS1_EEEEbRKNS_17__normal_iteratorIT_T0_EESB_
FNDA:506,_ZN9__gnu_cxxneIP4RuleSt6vectorIS1_SaIS1_EEEEbRKNS_17__normal_iteratorIT_T0_EESB_
FN:1145,_ZN9__gnu_cxxneIPK6LetterSt6vectorIS1_SaIS1_EEEEbRKNS_17__normal_iteratorIT_T0_EESC_
FNDA:392835,_ZN9__gnu_cxxneIPK6LetterSt6vectorIS1_SaIS1_EEEEbRKNS_17__normal_iteratorIT_T0_EESC_
FN:1257,_ZSt12__niter_baseIPK6LetterSt6vectorIS0_SaIS0_EEET_N9__gnu_cxx17__normal_iteratorIS6_T0_EE
FNDA:21544,_ZSt12__niter_baseIPK6LetterSt6vectorIS0_SaIS0_EEET_N9__gnu_cxx17__normal_iteratorIS6_T0_EE
FN:1257,_ZSt12__niter_baseIP6LetterSt6vectorIS0_SaIS0_EEET_N9__gnu_cxx17__normal_iteratorIS5_T0_EE
FNDA:21544,_ZSt12__niter_baseIP6LetterSt6vectorIS0_SaIS0_EEET_N9__gnu_cxx17__normal_iteratorIS5_T0_EE
FN:1257,_ZSt12__niter_baseIP4RuleSt6vectorIS0_SaIS0_EEET_N9__gnu_cxx17__normal_iteratorIS5_T0_EE
FNDA:506,_ZSt12__niter_baseIP4RuleSt6vectorIS0_SaIS0_EEET_N9__gnu_cxx17__normal_iteratorIS5_T0_EE
FN:1257,_ZSt12__niter_baseIPK4RuleSt6vectorIS0_SaIS0_EEET_N9__gnu_cxx17__normal_iteratorIS6_T0_EE
FNDA:506,_ZSt12__niter_baseIPK4RuleSt6vectorIS0_SaIS0_EEET_N9__gnu_cxx17__normal_iteratorIS6_T0_EE
DA:1010,32316
DA:1011,32316
DA:1010,138776
DA:1011,138776
DA:1010,0
DA:1011,0
DA:1010,0
DA:1011,0
DA:1025,334219
DA:1026,334219
DA:1025,0
DA:1026,0
DA:1025,253
DA:1026,253
DA:1035,334219
DA:1037,334219
DA:1038,334219
DA:1035,0
DA:1037,0
DA:1038,0
DA:1035,253
DA:1037,253
DA:1038,253
DA:1073,10772
DA:1074,10772
DA:1073,253
DA:1074,253
DA:1088,21544
DA:1089,21544
DA:1088,807214
DA:1089,807214
DA:1088,0
DA:1089,0
DA:1088,0
DA:1089,0
DA:1145,392835
DA:1148,392835
DA:1145,0
DA:1148,0
DA:1145,506
DA:1148,506
DA:1257,21544
DA:1259,21544
DA:1257,21544
DA:1259,21544
DA:1257,506
DA:1259,506
DA:1257,506
DA:1259,506
end_of_record
SF:/home/sofia/form/hpp/Grammar.hpp
end_of_record
SF:/usr/include/c++/11/ext/aligned_buffer.h
FN:64,_ZN9__gnu_cxx16__aligned_membufI9SituationE7_M_addrEv
FNDA:0,_ZN9__gnu_cxx16__aligned_membufI9SituationE7_M_addrEv
FN:68,_ZNK9__gnu_cxx16__aligned_membufI9SituationE7_M_addrEv
FNDA:827920,_ZNK9__gnu_cxx16__aligned_membufI9SituationE7_M_addrEv
FN:72,_ZN9__gnu_cxx16__aligned_membufI9SituationE6_M_ptrEv
FNDA:0,_ZN9__gnu_cxx16__aligned_membufI9SituationE6_M_ptrEv
FN:76,_ZNK9__gnu_cxx16__aligned_membufI9SituationE6_M_ptrEv
FNDA:827920,_ZNK9__gnu_cxx16__aligned_membufI9SituationE6_M_ptrEv
DA:64,0
DA:65,0
DA:68,827920
DA:69,827920
DA:72,0
DA:73,0
DA:76,827920
DA:77,827920
end_of_record
SF:/usr/include/c++/11/bits/stl_iterator_base_funcs.h
FN:98,_ZSt10__distanceIPKcENSt15iterator_traitsIT_E15difference_typeES3_S3_St26random_access_iterator_tag
FNDA:0,_ZSt10__distanceIPKcENSt15iterator_traitsIT_E15difference_typeES3_S3_St26random_access_iterator_tag
FN:138,_ZSt8distanceIPKcENSt15iterator_traitsIT_E15difference_typeES3_S3_
FNDA:0,_ZSt8distanceIPKcENSt15iterator_traitsIT_E15difference_typeES3_S3_
DA:98,0
DA:104,0
DA:138,0
DA:141,0
DA:142,0
end_of_record
SF:/usr/include/c++/11/bits/char_traits.h
FN:106,_ZN9__gnu_cxx11char_traitsIcE2eqERKcS3_
FNDA:0,_ZN9__gnu_cxx11char_traitsIcE2eqERKcS3_
FN:167,_ZN9__gnu_cxx11char_traitsIcE6lengthEPKc
FNDA:0,_ZN9__gnu_cxx11char_traitsIcE6lengthEPKc
FN:393,_ZNSt11char_traitsIcE6lengthEPKc
FNDA:0,_ZNSt11char_traitsIcE6lengthEPKc
DA:106,0
DA:107,0
DA:167,0
DA:170,0
DA:171,0
DA:172,0
DA:173,0
DA:290,0
DA:393,0
DA:396,0
DA:397,0
DA:399,0
end_of_record
SF:/usr/include/c++/11/new
FN:174,_ZnwmPv
FNDA:0,_ZnwmPv
FN:180,_ZdlPvS_
FNDA:0,_ZdlPvS_
DA:174,0
DA:175,0
DA:180,0
end_of_record
SF:/home/sofia/form/cpp/Parser.cpp
FN:3,_ZN12ParserEarley6EarleyERKNSt7__cxx1112basic_stringIcSt11char_traitsIcESaIcEEE7Grammar
FNDA:263,_ZN12ParserEarley6EarleyERKNSt7__cxx1112basic_stringIcSt11char_traitsIcESaIcEEE7Grammar
FN:36,_ZN12ParserEarley4ScanEi
FNDA:45152,_ZN12ParserEarley4ScanEi
FN:53,_ZN12ParserEarley7PredictEi
FNDA:46522,_ZN12ParserEarley7PredictEi
FN:70,_ZN12ParserEarley8CompleteEi
FNDA:46522,_ZN12ParserEarley8CompleteEi
DA:3,263
DA:4,263
DA:5,263
DA:8,263
DA:9,263
DA:13,263
DA:14,526
DA:15,263
DA:17,45415
DA:19,45152
DA:20,45152
DA:22,45152
DA:23,45152
DA:25,46522
DA:26,1370
DA:27,1370
DA:28,1370
DA:31,789
DA:32,526
DA:33,1052
DA:34,263
DA:36,45152
DA:37,45152
DA:38,263
DA:40,44889
DA:41,52163
DA:42,7274
DA:43,4002
DA:45,3272
DA:46,1719
DA:48,3106
DA:49,3106
DA:53,46522
DA:54,46522
DA:55,72062
DA:56,25540
DA:57,3455
DA:59,22085
DA:60,10818
DA:62,85854
DA:63,74587
DA:64,44526
DA:68,46522
DA:70,46522
DA:71,46522
DA:72,69723
DA:73,23201
DA:74,19975
DA:76,3226
DA:77,3226
DA:78,49435
DA:79,46209
DA:80,6630
DA:82,39579
DA:83,23281
DA:85,32596
DA:87,16298
DA:90,46522
end_of_record
TN:
SF:/usr/include/c++/11/bits/allocator.h
FN:156,_ZNSaI6LetterEC2Ev
FNDA:890638,_ZNSaI6LetterEC2Ev
FN:174,_ZNSaI6LetterED2Ev
FNDA:0,_ZNSaI6LetterED2Ev
DA:156,890638
DA:174,0
end_of_record
SF:/usr/include/c++/11/ext/new_allocator.h
FN:79,_ZN9__gnu_cxx13new_allocatorI6LetterEC2Ev
FNDA:890638,_ZN9__gnu_cxx13new_allocatorI6LetterEC2Ev
FN:89,_ZN9__gnu_cxx13new_allocatorI6LetterED2Ev
FNDA:0,_ZN9__gnu_cxx13new_allocatorI6LetterED2Ev
FN:103,_ZN9__gnu_cxx13new_allocatorI4RuleE8allocateEmPKv
FNDA:0,_ZN9__gnu_cxx13new_allocatorI4RuleE8allocateEmPKv
FN:103,_ZN9__gnu_cxx13new_allocatorI6LetterE8allocateEmPKv
FNDA:768283,_ZN9__gnu_cxx13new_allocatorI6LetterE8allocateEmPKv
FN:132,_ZN9__gnu_cxx13new_allocatorI4RuleE10deallocateEPS1_m
FNDA:0,_ZN9__gnu_cxx13new_allocatorI4RuleE10deallocateEPS1_m
FN:132,_ZN9__gnu_cxx13new_allocatorI6LetterE10deallocateEPS1_m
FNDA:0,_ZN9__gnu_cxx13new_allocatorI6LetterE10deallocateEPS1_m
FN:154,_ZNK9__gnu_cxx13new_allocatorI4RuleE8max_sizeEv
FNDA:88,_ZNK9__gnu_cxx13new_allocatorI4RuleE8max_sizeEv
FN:154,_ZNK9__gnu_cxx13new_allocatorI6LetterE8max_sizeEv
FNDA:2838668,_ZNK9__gnu_cxx13new_allocatorI6LetterE8max_sizeEv
FN:160,_ZN9__gnu_cxx13new_allocatorI4RuleE9constructIS1_JRKS1_EEEvPT_DpOT0_
FNDA:308,_ZN9__gnu_cxx13new_allocatorI4RuleE9constructIS1_JRKS1_EEEvPT_DpOT0_
FN:166,_ZN9__gnu_cxx13new_allocatorI4RuleE7destroyIS1_EEvPT_
FNDA:0,_ZN9__gnu_cxx13new_allocatorI4RuleE7destroyIS1_EEvPT_
FN:197,_ZNK9__gnu_cxx13new_allocatorI4RuleE11_M_max_sizeEv
FNDA:0,_ZNK9__gnu_cxx13new_allocatorI4RuleE11_M_max_sizeEv
FN:197,_ZNK9__gnu_cxx13new_allocatorI6LetterE11_M_max_sizeEv
FNDA:3606951,_ZNK9__gnu_cxx13new_allocatorI6LetterE11_M_max_sizeEv
DA:79,890638
DA:89,0
DA:103,0
DA:111,0
DA:115,0
DA:116,0
DA:117,0
DA:127,0
DA:103,768283
DA:111,768283
DA:115,0
DA:116,0
DA:117,0
DA:127,768283
DA:132,0
DA:145,0
DA:132,0
DA:145,0
DA:154,88
DA:155,88
DA:154,2838668
DA:155,2838668
DA:160,308
DA:162,308
DA:166,0
DA:168,0
DA:197,0
DA:200,0
DA:197,3606951
DA:200,3606951
end_of_record
SF:/usr/include/c++/11/bits/alloc_traits.h
FN:463,_ZNSt16allocator_traitsISaI4RuleEE8allocateERS1_m
FNDA:0,_ZNSt16allocator_traitsISaI4RuleEE8allocateERS1_m
FN:463,_ZNSt16allocator_traitsISaI6LetterEE8allocateERS1_m
FNDA:768283,_ZNSt16allocator_traitsISaI6LetterEE8allocateERS1_m
FN:495,_ZNSt16allocator_traitsISaI4RuleEE10deallocateERS1_PS0_m
FNDA:0,_ZNSt16allocator_traitsISaI4RuleEE10deallocateERS1_PS0_m
FN:495,_ZNSt16allocator_traitsISaI6LetterEE10deallocateERS1_PS0_m
FNDA:0,_ZNSt16allocator_traitsISaI6LetterEE10deallocateERS1_PS0_m
FN:511,_ZNSt16allocator_traitsISaI4RuleEE9constructIS0_JRKS0_EEEvRS1_PT_DpOT0_
FNDA:308,_ZNSt16allocator_traitsISaI4RuleEE9constructIS0_JRKS0_EEEvRS1_PT_DpOT0_
FN:531,_ZNSt16allocator_traitsISaI4RuleEE7destroyIS0_EEvRS1_PT_
FNDA:0,_ZNSt16allocator_traitsISaI4RuleEE7destroyIS0_EEvRS1_PT_
FN:547,_ZNSt16allocator_traitsISaI4RuleEE8max_sizeERKS1_
FNDA:88,_ZNSt16allocator_traitsISaI4RuleEE8max_sizeERKS1_
FN:547,_ZNSt16allocator_traitsISaI6LetterEE8max_sizeERKS1_
FNDA:2838668,_ZNSt16allocator_traitsISaI6LetterEE8max_sizeERKS1_
FN:845,_ZSt8_DestroyIP4RuleS0_EvT_S2_RSaIT0_E
FNDA:0,_ZSt8_DestroyIP4RuleS0_EvT_S2_RSaIT0_E
FN:845,_ZSt8_DestroyIP6LetterS0_EvT_S2_RSaIT0_E
FNDA:0,_ZSt8_DestroyIP6LetterS0_EvT_S2_RSaIT0_E
DA:463,0
DA:464,0
DA:463,768283
DA:464,768283
DA:495,0
DA:496,0
DA:495,0
DA:496,0
DA:511,308
DA:516,308
DA:520,308
DA:531,0
DA:535,0
DA:539,0
DA:547,88
DA:550,88
DA:547,2838668
DA:550,2838668
DA:845,0
DA:848,0
DA:849,0
DA:845,0
DA:848,0
DA:849,0
end_of_record
SF:/usr/include/c++/11/bits/move.h
FN:49,_ZSt11__addressofI4RuleEPT_RS1_
FNDA:0,_ZSt11__addressofI4RuleEPT_RS1_
FN:49,_ZSt11__addressofI6LetterEPT_RS1_
FNDA:4543156,_ZSt11__addressofI6LetterEPT_RS1_
FN:77,_ZSt7forwardIRK6LetterEOT_RNSt16remove_referenceIS3_E4typeE
FNDA:334219,_ZSt7forwardIRK6LetterEOT_RNSt16remove_referenceIS3_E4typeE
FN:77,_ZSt7forwardIRK4RuleEOT_RNSt16remove_referenceIS3_E4typeE
FNDA:0,_ZSt7forwardIRK4RuleEOT_RNSt16remove_referenceIS3_E4typeE
DA:49,0
DA:50,0
DA:49,4543156
DA:50,4543156
DA:77,334219
DA:78,334219
DA:77,0
DA:78,0
end_of_record
SF:/usr/include/c++/11/bits/vector.tcc
FN:426,_ZNSt6vectorI4RuleSaIS0_EE17_M_realloc_insertIJRKS0_EEEvN9__gnu_cxx17__normal_iteratorIPS0_S2_EEDpOT_
FNDA:44,_ZNSt6vectorI4RuleSaIS0_EE17_M_realloc_insertIJRKS0_EEEvN9__gnu_cxx17__normal_iteratorIPS0_S2_EEDpOT_
FN:611,_ZNSt6vectorI6LetterSaIS0_EE17_M_default_appendEm
FNDA:709667,_ZNSt6vectorI6LetterSaIS0_EE17_M_default_appendEm
DA:426,44
DA:436,44
DA:437,44
DA:438,44
DA:439,44
DA:440,44
DA:441,44
DA:449,44
DA:450,44
DA:456,44
DA:474,44
DA:475,44
DA:477,44
DA:481,44
DA:482,44
DA:485,0
DA:487,0
DA:488,0
DA:489,0
DA:491,0
DA:492,0
DA:493,0
DA:498,44
DA:500,44
DA:501,44
DA:502,44
DA:503,44
DA:504,44
DA:505,44
DA:611,709667
DA:614,709667
DA:616,709667
DA:617,709667
DA:618,709667
DA:620,709667
DA:621,0
DA:623,709667
DA:626,0
DA:627,0
DA:628,0
DA:634,709667
DA:635,709667
DA:653,709667
DA:656,709667
DA:657,709667
DA:658,709667
DA:659,709667
DA:661,709667
DA:663,0
DA:665,0
DA:666,0
DA:667,0
DA:668,0
DA:669,0
DA:671,709667
DA:672,709667
DA:675,709667
DA:676,709667
DA:677,709667
DA:678,709667
DA:679,709667
DA:680,709667
DA:683,709667
end_of_record
SF:/usr/include/c++/11/bits/stl_vector.h
FN:97,_ZNSt12_Vector_baseI6LetterSaIS0_EE17_Vector_impl_dataC2Ev
FNDA:890638,_ZNSt12_Vector_baseI6LetterSaIS0_EE17_Vector_impl_dataC2Ev
FN:131,_ZNSt12_Vector_baseI6LetterSaIS0_EE12_Vector_implC2Ev
FNDA:890638,_ZNSt12_Vector_baseI6LetterSaIS0_EE12_Vector_implC2Ev
FN:276,_ZNSt12_Vector_baseI4RuleSaIS0_EE19_M_get_Tp_allocatorEv
FNDA:0,_ZNSt12_Vector_baseI4RuleSaIS0_EE19_M_get_Tp_allocatorEv
FN:276,_ZNSt12_Vector_baseI6LetterSaIS0_EE19_M_get_Tp_allocatorEv
FNDA:0,_ZNSt12_Vector_baseI6LetterSaIS0_EE19_M_get_Tp_allocatorEv
FN:280,_ZNKSt12_Vector_baseI6LetterSaIS0_EE19_M_get_Tp_allocatorEv
FNDA:2838668,_ZNKSt12_Vector_baseI6LetterSaIS0_EE19_M_get_Tp_allocatorEv
FN:280,_ZNKSt12_Vector_baseI4RuleSaIS0_EE19_M_get_Tp_allocatorEv
FNDA:0,_ZNKSt12_Vector_baseI4RuleSaIS0_EE19_M_get_Tp_allocatorEv
FN:288,_ZNSt12_Vector_baseI6LetterSaIS0_EEC2Ev
FNDA:890638,_ZNSt12_Vector_baseI6LetterSaIS0_EEC2Ev
FN:333,_ZNSt12_Vector_baseI6LetterSaIS0_EED2Ev
FNDA:0,_ZNSt12_Vector_baseI6LetterSaIS0_EED2Ev
FN:343,_ZNSt12_Vector_baseI4RuleSaIS0_EE11_M_allocateEm
FNDA:0,_ZNSt12_Vector_baseI4RuleSaIS0_EE11_M_allocateEm
FN:343,_ZNSt12_Vector_baseI6LetterSaIS0_EE11_M_allocateEm
FNDA:768283,_ZNSt12_Vector_baseI6LetterSaIS0_EE11_M_allocateEm
FN:350,_ZNSt12_Vector_baseI4RuleSaIS0_EE13_M_deallocateEPS0_m
FNDA:0,_ZNSt12_Vector_baseI4RuleSaIS0_EE13_M_deallocateEPS0_m
FN:350,_ZNSt12_Vector_baseI6LetterSaIS0_EE13_M_deallocateEPS0_m
FNDA:0,_ZNSt12_Vector_baseI6LetterSaIS0_EE13_M_deallocateEPS0_m
FN:487,_ZNSt6vectorI6LetterSaIS0_EEC2Ev
FNDA:890638,_ZNSt6vectorI6LetterSaIS0_EEC2Ev
FN:678,_ZNSt6vectorI6LetterSaIS0_EED2Ev
FNDA:0,_ZNSt6vectorI6LetterSaIS0_EED2Ev
FN:811,_ZNSt6vectorI4RuleSaIS0_EE5beginEv
FNDA:297,_ZNSt6vectorI4RuleSaIS0_EE5beginEv
FN:829,_ZNSt6vectorI4RuleSaIS0_EE3endEv
FNDA:297,_ZNSt6vectorI4RuleSaIS0_EE3endEv
FN:918,_ZNKSt6vectorI6LetterSaIS0_EE4sizeEv
FNDA:13866521,_ZNKSt6vectorI6LetterSaIS0_EE4sizeEv
FN:918,_ZNKSt6vectorI4RuleSaIS0_EE4sizeEv
FNDA:0,_ZNKSt6vectorI4RuleSaIS0_EE4sizeEv
FN:923,_ZNKSt6vectorI6LetterSaIS0_EE8max_sizeEv
FNDA:2838668,_ZNKSt6vectorI6LetterSaIS0_EE8max_sizeEv
FN:923,_ZNKSt6vectorI4RuleSaIS0_EE8max_sizeEv
FNDA:88,_ZNKSt6vectorI4RuleSaIS0_EE8max_sizeEv
FN:937,_ZNSt6vectorI6LetterSaIS0_EE6resizeEm
FNDA:822232,_ZNSt6vectorI6LetterSaIS0_EE6resizeEm
FN:1043,_ZNSt6vectorI6LetterSaIS0_EEixEm
FNDA:4208937,_ZNSt6vectorI6LetterSaIS0_EEixEm
FN:1061,_ZNKSt6vectorI6LetterSaIS0_EEixEm
FNDA:9256902,_ZNKSt6vectorI6LetterSaIS0_EEixEm
FN:1187,_ZNSt6vectorI4RuleSaIS0_EE9push_backERKS0_
FNDA:308,_ZNSt6vectorI4RuleSaIS0_EE9push_backERKS0_
FN:1756,_ZNKSt6vectorI6LetterSaIS0_EE12_M_check_lenEmPKc
FNDA:709667,_ZNKSt6vectorI6LetterSaIS0_EE12_M_check_lenEmPKc
FN:1756,_ZNKSt6vectorI4RuleSaIS0_EE12_M_check_lenEmPKc
FNDA:44,_ZNKSt6vectorI4RuleSaIS0_EE12_M_check_lenEmPKc
FN:1776,_ZNSt6vectorI6LetterSaIS0_EE11_S_max_sizeERKS1_
FNDA:2838668,_ZNSt6vectorI6LetterSaIS0_EE11_S_max_sizeERKS1_
FN:1776,_ZNSt6vectorI4RuleSaIS0_EE11_S_max_sizeERKS1_
FNDA:88,_ZNSt6vectorI4RuleSaIS0_EE11_S_max_sizeERKS1_
FN:1792,_ZNSt6vectorI6LetterSaIS0_EE15_M_erase_at_endEPS0_
FNDA:0,_ZNSt6vectorI6LetterSaIS0_EE15_M_erase_at_endEPS0_
DA:97,890638
DA:98,890638
DA:99,890638
DA:131,890638
DA:133,890638
DA:134,890638
DA:276,0
DA:277,0
DA:276,0
DA:277,0
DA:280,0
DA:281,0
DA:280,2838668
DA:281,2838668
DA:288,890638
DA:333,0
DA:335,0
DA:336,0
DA:337,0
DA:343,0
DA:346,0
DA:343,768283
DA:346,768283
DA:350,0
DA:353,0
DA:354,0
DA:355,0
DA:350,0
DA:353,0
DA:354,0
DA:355,0
DA:487,890638
DA:678,0
DA:680,0
DA:681,0
DA:683,0
DA:811,297
DA:812,297
DA:829,297
DA:830,297
DA:918,0
DA:919,0
DA:918,13866521
DA:919,13866521
DA:923,88
DA:924,88
DA:923,2838668
DA:924,2838668
DA:937,822232
DA:939,822232
DA:940,709667
DA:941,112565
DA:942,0
DA:943,822232
DA:1043,4208937
DA:1046,4208937
DA:1061,9256902
DA:1064,9256902
DA:1187,308
DA:1189,308
DA:1192,264
DA:1194,264
DA:1198,44
DA:1199,308
DA:1756,44
DA:1758,44
DA:1759,0
DA:1761,44
DA:1762,44
DA:1756,709667
DA:1758,709667
DA:1759,0
DA:1761,709667
DA:1762,709667
DA:1776,88
DA:1781,88
DA:1783,88
DA:1784,88
DA:1776,2838668
DA:1781,2838668
DA:1783,2838668
DA:1784,2838668
DA:1792,0
DA:1794,0
DA:1796,0
DA:1797,0
DA:1798,0
DA:1801,0
end_of_record
SF:/usr/include/c++/11/bits/stl_uninitialized.h
FN:85,_ZNSt20__uninitialized_copyILb0EE13__uninit_copyIPK4RulePS2_EET0_T_S7_S6_
FNDA:88,_ZNSt20__uninitialized_copyILb0EE13__uninit_copyIPK4RulePS2_EET0_T_S7_S6_
FN:85,_ZNSt20__uninitialized_copyILb0EE13__uninit_copyIPK6LetterPS2_EET0_T_S7_S6_
FNDA:709667,_ZNSt20__uninitialized_copyILb0EE13__uninit_copyIPK6LetterPS2_EET0_T_S7_S6_
FN:126,_ZSt18uninitialized_copyIPK4RulePS0_ET0_T_S5_S4_
FNDA:88,_ZSt18uninitialized_copyIPK4RulePS0_ET0_T_S5_S4_
FN:126,_ZSt18uninitialized_copyIPK6LetterPS0_ET0_T_S5_S4_
FNDA:709667,_ZSt18uninitialized_copyIPK6LetterPS0_ET0_T_S5_S4_
FN:331,_ZSt22__uninitialized_copy_aIPK4RulePS0_S0_ET0_T_S5_S4_RSaIT1_E
FNDA:88,_ZSt22__uninitialized_copy_aIPK4RulePS0_S0_ET0_T_S5_S4_RSaIT1_E
FN:331,_ZSt22__uninitialized_copy_aIPK6LetterPS0_S0_ET0_T_S5_S4_RSaIT1_E
FNDA:709667,_ZSt22__uninitialized_copy_aIPK6LetterPS0_S0_ET0_T_S5_S4_RSaIT1_E
FN:349,_ZSt34__uninitialized_move_if_noexcept_aIP4RuleS1_SaIS0_EET0_T_S4_S3_RT1_
FNDA:88,_ZSt34__uninitialized_move_if_noexcept_aIP4RuleS1_SaIS0_EET0_T_S4_S3_RT1_
FN:349,_ZSt34__uninitialized_move_if_noexcept_aIP6LetterS1_SaIS0_EET0_T_S4_S3_RT1_
FNDA:709667,_ZSt34__uninitialized_move_if_noexcept_aIP6LetterS1_SaIS0_EET0_T_S4_S3_RT1_
FN:573,_ZNSt27__uninitialized_default_n_1ILb0EE18__uninit_default_nIP6LettermEET_S4_T0_
FNDA:709667,_ZNSt27__uninitialized_default_n_1ILb0EE18__uninit_default_nIP6LettermEET_S4_T0_
FN:630,_ZSt25__uninitialized_default_nIP6LettermET_S2_T0_
FNDA:709667,_ZSt25__uninitialized_default_nIP6LettermET_S2_T0_
FN:702,_ZSt27__uninitialized_default_n_aIP6LettermS0_ET_S2_T0_RSaIT1_E
FNDA:709667,_ZSt27__uninitialized_default_n_aIP6LettermS0_ET_S2_T0_RSaIT1_E
DA:85,88
DA:88,88
DA:91,179
DA:92,91
DA:93,88
DA:95,0
DA:97,0
DA:98,0
DA:85,709667
DA:88,709667
DA:91,709667
DA:92,0
DA:93,709667
DA:95,0
DA:97,0
DA:98,0
DA:126,88
DA:145,88
DA:151,88
DA:126,709667
DA:145,709667
DA:151,709667
DA:331,88
DA:333,88
DA:331,709667
DA:333,709667
DA:349,88
DA:355,88
DA:356,88
DA:349,709667
DA:355,709667
DA:356,709667
DA:573,709667
DA:575,709667
DA:578,4918604
DA:579,4208937
DA:580,709667
DA:630,709667
DA:635,709667
DA:640,709667
DA:702,709667
DA:704,709667
end_of_record
SF:/usr/include/c++/11/bits/stl_construct.h
FN:109,_ZSt10_ConstructI4RuleJRKS0_EEvPT_DpOT0_
FNDA:0,_ZSt10_ConstructI4RuleJRKS0_EEvPT_DpOT0_
FN:109,_ZSt10_ConstructI6LetterJRKS0_EEvPT_DpOT0_
FNDA:334219,_ZSt10_ConstructI6LetterJRKS0_EEvPT_DpOT0_
FN:109,_ZSt10_ConstructI6LetterJEEvPT_DpOT0_
FNDA:4208937,_ZSt10_ConstructI6LetterJEEvPT_DpOT0_
FN:146,_ZSt8_DestroyI4RuleEvPT_
FNDA:0,_ZSt8_DestroyI4RuleEvPT_
FN:160,_ZNSt12_Destroy_auxILb0EE9__destroyIP4RuleEEvT_S4_
FNDA:0,_ZNSt12_Destroy_auxILb0EE9__destroyIP4RuleEEvT_S4_
FN:172,_ZNSt12_Destroy_auxILb1EE9__destroyIP6LetterEEvT_S4_
FNDA:0,_ZNSt12_Destroy_auxILb1EE9__destroyIP6LetterEEvT_S4_
FN:182,_ZSt8_DestroyIP4RuleEvT_S2_
FNDA:0,_ZSt8_DestroyIP4RuleEvT_S2_
FN:182,_ZSt8_DestroyIP6LetterEvT_S2_
FNDA:0,_ZSt8_DestroyIP6LetterEvT_S2_
DA:109,0
DA:119,0
DA:120,0
DA:109,334219
DA:119,334219
DA:120,334219
DA:109,4208937
DA:119,4208937
DA:120,4208937
DA:146,0
DA:151,0
DA:153,0
DA:160,0
DA:162,0
DA:163,0
DA:164,0
DA:172,0
DA:182,0
DA:196,0
DA:197,0
DA:182,0
DA:196,0
DA:197,0
end_of_record
SF:/home/sofia/form/cpp/Grammar.cpp
FN:3,_ZN4RuleC2ERKNSt7__cxx1112basic_stringIcSt11char_traitsIcESaIcEEE
FNDA:571,_ZN4RuleC2ERKNSt7__cxx1112basic_stringIcSt11char_traitsIcESaIcEEE
FN:11,_ZN4RuleC2ERKS_
FNDA:821661,_ZN4RuleC2ERKS_
FN:20,_ZNK4RuleltERKS_
FNDA:576350,_ZNK4RuleltERKS_
FN:46,_ZN7Grammar7SetRuleERKNSt7__cxx1112basic_stringIcSt11char_traitsIcESaIcEEE
FNDA:45,_ZN7Grammar7SetRuleERKNSt7__cxx1112basic_stringIcSt11char_traitsIcESaIcEEE
FN:51,_ZN7Grammar7SetRuleERK4Rule
FNDA:263,_ZN7Grammar7SetRuleERK4Rule
FN:55,_ZNK4Rule11GetSizeRuleEv
FNDA:124309,_ZNK4Rule11GetSizeRuleEv
FN:59,_ZNK4Rule14GetLetterRightEi
FNDA:145689,_ZNK4Rule14GetLetterRightEi
FN:63,_ZNK4Rule11GetTerminalEv
FNDA:114166,_ZNK4Rule11GetTerminalEv
DA:3,571
DA:4,571
DA:5,571
DA:6,1215
DA:7,644
DA:9,571
DA:11,821661
DA:13,821661
DA:14,821661
DA:15,5029954
DA:16,4208293
DA:18,821661
DA:20,576350
DA:21,576350
DA:22,11941
DA:23,564409
DA:24,4139
DA:27,560270
DA:29,560270
DA:30,23110
DA:33,2908319
DA:34,2451460
DA:35,103411
DA:39,456859
DA:40,66127
DA:43,390732
DA:46,45
DA:47,45
DA:48,45
DA:49,45
DA:51,263
DA:52,263
DA:53,263
DA:55,124309
DA:56,124309
DA:59,145689
DA:60,145689
DA:63,114166
DA:64,114166
end_of_record
SF:/usr/include/c++/11/bits/stl_iterator.h
FN:1010,_ZN9__gnu_cxx17__normal_iteratorIP4RuleSt6vectorIS1_SaIS1_EEEC2ERKS2_
FNDA:847,_ZN9__gnu_cxx17__normal_iteratorIP4RuleSt6vectorIS1_SaIS1_EEEC2ERKS2_
FN:1088,_ZNK9__gnu_cxx17__normal_iteratorIP4RuleSt6vectorIS1_SaIS1_EEE4baseEv
FNDA:1694,_ZNK9__gnu_cxx17__normal_iteratorIP4RuleSt6vectorIS1_SaIS1_EEE4baseEv
FN:1234,_ZN9__gnu_cxxmiIP4RuleSt6vectorIS1_SaIS1_EEEENS_17__normal_iteratorIT_T0_E15difference_typeERKS9_SC_
FNDA:44,_ZN9__gnu_cxxmiIP4RuleSt6vectorIS1_SaIS1_EEEENS_17__normal_iteratorIT_T0_E15difference_typeERKS9_SC_
FN:1669,_ZSt32__make_move_if_noexcept_iteratorI4RulePKS0_ET0_PT_
FNDA:176,_ZSt32__make_move_if_noexcept_iteratorI4RulePKS0_ET0_PT_
FN:1669,_ZSt32__make_move_if_noexcept_iteratorI6LetterPKS0_ET0_PT_
FNDA:1419334,_ZSt32__make_move_if_noexcept_iteratorI6LetterPKS0_ET0_PT_
DA:1010,847
DA:1011,847
DA:1088,1694
DA:1089,1694
DA:1234,44
DA:1237,44
DA:1669,176
DA:1670,176
DA:1669,1419334
DA:1670,1419334
end_of_record
SF:/usr/include/c++/11/bits/stl_algobase.h
FN:230,_ZSt3minImERKT_S2_S2_
FNDA:2839822,_ZSt3minImERKT_S2_S2_
FN:254,_ZSt3maxImERKT_S2_S2_
FNDA:709978,_ZSt3maxImERKT_S2_S2_
DA:230,2839822
DA:235,2839822
DA:236,0
DA:237,2839822
DA:254,709978
DA:259,709978
DA:260,709923
DA:261,55
end_of_record
SF:/home/sofia/form/hpp/Letter.hpp
FN:9,_ZN6LetterC2Ev
FNDA:5099575,_ZN6LetterC2Ev
DA:9,5099575
end_of_record
SF:/usr/include/c++/11/new
FN:174,_ZnwmPv
FNDA:0,_ZnwmPv
FN:180,_ZdlPvS_
FNDA:0,_ZdlPvS_
DA:174,0
DA:175,0
DA:180,0
end_of_record
SF:/home/sofia/form/hpp/Grammar.hpp
end_of_record
